Archive member included because of file (symbol)

/home/newfriday/cross_compile/AT91BootStrap/bin/../lib/gcc/arm-none-linux-gnueabi/4.3.3/libgcc.a(_udivsi3.o)
                              arch/arm/mach-at91/built-in.o (__aeabi_uidiv)
/home/newfriday/cross_compile/AT91BootStrap/bin/../lib/gcc/arm-none-linux-gnueabi/4.3.3/libgcc.a(_divsi3.o)
                              common/built-in.o (__aeabi_idiv)
/home/newfriday/cross_compile/AT91BootStrap/bin/../lib/gcc/arm-none-linux-gnueabi/4.3.3/libgcc.a(_lshrdi3.o)
                              drivers/mtd/nand/built-in.o (__aeabi_llsr)
/home/newfriday/cross_compile/AT91BootStrap/bin/../lib/gcc/arm-none-linux-gnueabi/4.3.3/libgcc.a(_ashrdi3.o)
                              drivers/mtd/nand/built-in.o (__aeabi_lasr)
/home/newfriday/cross_compile/AT91BootStrap/bin/../lib/gcc/arm-none-linux-gnueabi/4.3.3/libgcc.a(_ashldi3.o)
                              drivers/mmc/built-in.o (__aeabi_llsl)
/home/newfriday/cross_compile/AT91BootStrap/bin/../lib/gcc/arm-none-linux-gnueabi/4.3.3/libgcc.a(_dvmd_lnx.o)
                              /home/newfriday/cross_compile/AT91BootStrap/bin/../lib/gcc/arm-none-linux-gnueabi/4.3.3/libgcc.a(_udivsi3.o) (__aeabi_idiv0)

Discarded input sections

 .data          0x00000000        0x0 arch/arm/cpu/arm926ejs/start.o
 .bss           0x00000000        0x0 arch/arm/cpu/arm926ejs/start.o
 .text          0x00000000        0x0 arch/arm/cpu/arm926ejs/built-in.o
 .text.invalidate_dcache_all
                0x00000000        0x0 arch/arm/cpu/arm926ejs/built-in.o
 .data          0x00000000        0x0 arch/arm/cpu/arm926ejs/built-in.o
 .bss           0x00000000        0x0 arch/arm/cpu/arm926ejs/built-in.o
 .text.flush_cache
                0x00000000        0x0 arch/arm/lib/built-in.o
 .text.flush_dcache_all
                0x00000000        0x0 arch/arm/lib/built-in.o
 .text.arm_init_before_mmu
                0x00000000        0x0 arch/arm/lib/built-in.o
 .text.arm_init_domains
                0x00000000        0x0 arch/arm/lib/built-in.o
 .text.set_section_dcache
                0x00000000        0x0 arch/arm/lib/built-in.o
 .text.mmu_page_table_flush
                0x00000000        0x0 arch/arm/lib/built-in.o
 .text.mmu_set_region_dcache_behaviour
                0x00000000        0x0 arch/arm/lib/built-in.o
 .text.dram_bank_mmu_setup
                0x00000000        0x0 arch/arm/lib/built-in.o
 .text.cache_enable
                0x00000000        0x0 arch/arm/lib/built-in.o
 .text.icache_enable
                0x00000000        0x0 arch/arm/lib/built-in.o
 .text.icache_status
                0x00000000        0x0 arch/arm/lib/built-in.o
 .text.dcache_enable
                0x00000000        0x0 arch/arm/lib/built-in.o
 .text.dcache_status
                0x00000000        0x0 arch/arm/lib/built-in.o
 .data          0x00000000        0x0 arch/arm/lib/built-in.o
 .__secure_start
                0x00000000        0x0 arch/arm/lib/built-in.o
 .__secure_end  0x00000000        0x0 arch/arm/lib/built-in.o
 .bss           0x00000000        0x0 arch/arm/lib/built-in.o
 .text          0x00000000        0x0 arch/arm/mach-at91/built-in.o
 .text.at91_spi1_hw_init
                0x00000000        0x0 arch/arm/mach-at91/built-in.o
 .text.at91_serial2_hw_init
                0x00000000        0x0 arch/arm/mach-at91/built-in.o
 .text.at91_serial1_hw_init
                0x00000000        0x0 arch/arm/mach-at91/built-in.o
 .text.at91_serial0_hw_init
                0x00000000        0x0 arch/arm/mach-at91/built-in.o
 .text.yellow_led_off
                0x00000000        0x0 arch/arm/mach-at91/built-in.o
 .text.yellow_led_on
                0x00000000        0x0 arch/arm/mach-at91/built-in.o
 .text.green_led_off
                0x00000000        0x0 arch/arm/mach-at91/built-in.o
 .text.green_led_on
                0x00000000        0x0 arch/arm/mach-at91/built-in.o
 .text.red_led_off
                0x00000000        0x0 arch/arm/mach-at91/built-in.o
 .text.at91_plla_init
                0x00000000        0x0 arch/arm/mach-at91/built-in.o
 .text.at91_pllb_init
                0x00000000        0x0 arch/arm/mach-at91/built-in.o
 .text.at91_mck_init
                0x00000000        0x0 arch/arm/mach-at91/built-in.o
 .text.at91_periph_clk_enable
                0x00000000        0x0 arch/arm/mach-at91/built-in.o
 .data          0x00000000        0x0 arch/arm/mach-at91/built-in.o
 .bss           0x00000000        0x0 arch/arm/mach-at91/built-in.o
 .text          0x00000000        0x0 board/atmel/at91sam9263ek/built-in.o
 .text.lcd_disable
                0x00000000        0x0 board/atmel/at91sam9263ek/built-in.o
 .data          0x00000000        0x0 board/atmel/at91sam9263ek/built-in.o
 .bss           0x00000000        0x0 board/atmel/at91sam9263ek/built-in.o
 .text          0x00000000        0x0 common/built-in.o
 .text.hash_show
                0x00000000        0x0 common/built-in.o
 .text.hash_progressive_lookup_algo
                0x00000000        0x0 common/built-in.o
 .text.hash_lookup_algo
                0x00000000        0x0 common/built-in.o
 .text.hash_block
                0x00000000        0x0 common/built-in.o
 .text.hash_finish_crc32
                0x00000000        0x0 common/built-in.o
 .text.hash_update_crc32
                0x00000000        0x0 common/built-in.o
 .text.hash_init_crc32
                0x00000000        0x0 common/built-in.o
 .text.indenter
                0x00000000        0x0 common/built-in.o
 .text.unset_local_var
                0x00000000        0x0 common/built-in.o
 .text.coloured_LED_init
                0x00000000        0x0 common/built-in.o
 .text.red_led_on
                0x00000000        0x0 common/built-in.o
 .text.red_led_off
                0x00000000        0x0 common/built-in.o
 .text.green_led_on
                0x00000000        0x0 common/built-in.o
 .text.green_led_off
                0x00000000        0x0 common/built-in.o
 .text.yellow_led_on
                0x00000000        0x0 common/built-in.o
 .text.yellow_led_off
                0x00000000        0x0 common/built-in.o
 .text.blue_led_on
                0x00000000        0x0 common/built-in.o
 .text.blue_led_off
                0x00000000        0x0 common/built-in.o
 .text.arch_cpu_init
                0x00000000        0x0 common/built-in.o
 .text.arch_reserve_stacks
                0x00000000        0x0 common/built-in.o
 .text.board_init_f_mem
                0x00000000        0x0 common/built-in.o
 .text.board_flash_wp_on
                0x00000000        0x0 common/built-in.o
 .text.fixup_cpu
                0x00000000        0x0 common/built-in.o
 .text.bootz_setup
                0x00000000        0x0 common/built-in.o
 .text.arch_preboot_os
                0x00000000        0x0 common/built-in.o
 .text.env_flags_parse_varaccess_from_binflags
                0x00000000        0x0 common/built-in.o
 .text.of_bus_default_map
                0x00000000        0x0 common/built-in.o
 .text.fdt_read_prop
                0x00000000        0x0 common/built-in.o
 .text.fdt_set_phandle
                0x00000000        0x0 common/built-in.o
 .text.fdt_getprop_u32_default_node
                0x00000000        0x0 common/built-in.o
 .text.of_bus_default_count_cells
                0x00000000        0x0 common/built-in.o
 .text.fdt_setup_simplefb_node
                0x00000000        0x0 common/built-in.o
 .text.fdt_getprop_u32_default
                0x00000000        0x0 common/built-in.o
 .text.fdt_set_node_status
                0x00000000        0x0 common/built-in.o
 .text.fdt_set_status_by_alias
                0x00000000        0x0 common/built-in.o
 .text.fdt_alloc_phandle
                0x00000000        0x0 common/built-in.o
 .text.fdt_create_phandle
                0x00000000        0x0 common/built-in.o
 .text.of_bus_default_translate
                0x00000000        0x0 common/built-in.o
 .text.fdt_translate_address
                0x00000000        0x0 common/built-in.o
 .text.fdt_read_range
                0x00000000        0x0 common/built-in.o
 .text.fdt_get_base_address
                0x00000000        0x0 common/built-in.o
 .text.fdt_verify_alias_address
                0x00000000        0x0 common/built-in.o
 .text.fdt_node_offset_by_compat_reg
                0x00000000        0x0 common/built-in.o
 .text.fdt_del_node_and_alias
                0x00000000        0x0 common/built-in.o
 .text.fdt_increase_size
                0x00000000        0x0 common/built-in.o
 .text.fdt_add_edid
                0x00000000        0x0 common/built-in.o
 .text.do_fixup_by_compat
                0x00000000        0x0 common/built-in.o
 .text.do_fixup_by_compat_u32
                0x00000000        0x0 common/built-in.o
 .text.do_fixup_by_path_u32
                0x00000000        0x0 common/built-in.o
 .text.do_fixup_by_prop
                0x00000000        0x0 common/built-in.o
 .text.do_fixup_by_prop_u32
                0x00000000        0x0 common/built-in.o
 .text.board_usb_init
                0x00000000        0x0 common/built-in.o
 .text.board_usb_cleanup
                0x00000000        0x0 common/built-in.o
 .text.usb_get_class_descriptor
                0x00000000        0x0 common/built-in.o
 .text.usb_get_report
                0x00000000        0x0 common/built-in.o
 .text.usb_set_idle
                0x00000000        0x0 common/built-in.o
 .text.usb_set_protocol
                0x00000000        0x0 common/built-in.o
 .text.usb_submit_int_msg
                0x00000000        0x0 common/built-in.o
 .text.splash_screen_prepare
                0x00000000        0x0 common/built-in.o
 .text.lcd_set_flush_dcache
                0x00000000        0x0 common/built-in.o
 .text.lcd_get_pixel_width
                0x00000000        0x0 common/built-in.o
 .text.lcd_get_pixel_height
                0x00000000        0x0 common/built-in.o
 .text.lcd_logo_set_cmap
                0x00000000        0x0 common/built-in.o
 .text.lcd_get_screen_rows
                0x00000000        0x0 common/built-in.o
 .text.lcd_get_screen_columns
                0x00000000        0x0 common/built-in.o
 .text.disable_ctrlc
                0x00000000        0x0 common/built-in.o
 .text.fprintf  0x00000000        0x0 common/built-in.o
 .text.malloc_usable_size
                0x00000000        0x0 common/built-in.o
 .text.mallopt  0x00000000        0x0 common/built-in.o
 .text.cfree    0x00000000        0x0 common/built-in.o
 .text.pvalloc  0x00000000        0x0 common/built-in.o
 .text.valloc   0x00000000        0x0 common/built-in.o
 .text.genimg_get_kernel_addr
                0x00000000        0x0 common/built-in.o
 .text.get_table_entry_id
                0x00000000        0x0 common/built-in.o
 .text.genimg_get_comp_id
                0x00000000        0x0 common/built-in.o
 .text.genimg_get_type_id
                0x00000000        0x0 common/built-in.o
 .text.genimg_get_arch_id
                0x00000000        0x0 common/built-in.o
 .text.genimg_get_os_id
                0x00000000        0x0 common/built-in.o
 .text.arch_fixup_fdt
                0x00000000        0x0 common/built-in.o
 .text.stdio_init
                0x00000000        0x0 common/built-in.o
 .text.cli_simple_loop
                0x00000000        0x0 common/built-in.o
 .text.cli_simple_process_macros
                0x00000000        0x0 common/built-in.o
 .text.cli_simple_parse_line
                0x00000000        0x0 common/built-in.o
 .text.cli_simple_run_command
                0x00000000        0x0 common/built-in.o
 .text.cli_simple_run_command_list
                0x00000000        0x0 common/built-in.o
 .text.run_command_repeatable
                0x00000000        0x0 common/built-in.o
 .text.cmd_process_error
                0x00000000        0x0 common/built-in.o
 .text.hex1_bin
                0x00000000        0x0 common/built-in.o
 .text.hex2_bin
                0x00000000        0x0 common/built-in.o
 .text.srec_decode
                0x00000000        0x0 common/built-in.o
 .rodata.__FUNCTION__.5683
                0x00000000        0x0 common/built-in.o
 .data          0x00000000        0x0 common/built-in.o
 .data.hash_algo
                0x00000000        0x0 common/built-in.o
 .data.blanks.4450
                0x00000000        0x0 common/built-in.o
 .data.of_busses
                0x00000000        0x0 common/built-in.o
 .data.mmap_threshold
                0x00000000        0x0 common/built-in.o
 .bss           0x00000000        0x0 common/built-in.o
 .bss.n_mmaps_max
                0x00000000        0x0 common/built-in.o
 .bss.save_addr
                0x00000000        0x0 common/built-in.o
 .bss.save_size
                0x00000000        0x0 common/built-in.o
 .bss.lastcommand.4106
                0x00000000        0x0 common/built-in.o
 .text          0x00000000        0x0 disk/built-in.o
 .text.get_dev  0x00000000        0x0 disk/built-in.o
 .data          0x00000000        0x0 disk/built-in.o
 .bss           0x00000000        0x0 disk/built-in.o
 .text          0x00000000        0x0 drivers/built-in.o
 .text.lcd_set_cmap
                0x00000000        0x0 drivers/built-in.o
 .text.calc_fbsize
                0x00000000        0x0 drivers/built-in.o
 .text.input_tstc
                0x00000000        0x0 drivers/built-in.o
 .text.input_getc
                0x00000000        0x0 drivers/built-in.o
 .text.array_search
                0x00000000        0x0 drivers/built-in.o
 .text.input_add_table
                0x00000000        0x0 drivers/built-in.o
 .text.input_set_delays
                0x00000000        0x0 drivers/built-in.o
 .text.input_stdio_register
                0x00000000        0x0 drivers/built-in.o
 .text.input_init
                0x00000000        0x0 drivers/built-in.o
 .text.sort_array_by_ordering
                0x00000000        0x0 drivers/built-in.o
 .text.input_send_keycodes
                0x00000000        0x0 drivers/built-in.o
 .rodata.kbd_to_ansi364
                0x00000000        0x0 drivers/built-in.o
 .rodata.kbd_plain_xlate
                0x00000000        0x0 drivers/built-in.o
 .rodata.str1.1
                0x00000000        0x0 drivers/built-in.o
 .data          0x00000000        0x0 drivers/built-in.o
 .data.kbd_ctrl_xlate
                0x00000000        0x0 drivers/built-in.o
 .data.kbd_shift_xlate
                0x00000000        0x0 drivers/built-in.o
 .bss           0x00000000        0x0 drivers/built-in.o
 .text          0x00000000        0x0 drivers/gpio/built-in.o
 .text.gpio_request
                0x00000000        0x0 drivers/gpio/built-in.o
 .text.gpio_free
                0x00000000        0x0 drivers/gpio/built-in.o
 .text.at91_set_pio_multi_drive
                0x00000000        0x0 drivers/gpio/built-in.o
 .text.at91_set_pio_deglitch
                0x00000000        0x0 drivers/gpio/built-in.o
 .text.gpio_direction_output
                0x00000000        0x0 drivers/gpio/built-in.o
 .text.gpio_direction_input
                0x00000000        0x0 drivers/gpio/built-in.o
 .text.at91_set_pio_periph
                0x00000000        0x0 drivers/gpio/built-in.o
 .data          0x00000000        0x0 drivers/gpio/built-in.o
 .bss           0x00000000        0x0 drivers/gpio/built-in.o
 .text          0x00000000        0x0 drivers/mmc/built-in.o
 .text.board_mmc_init
                0x00000000        0x0 drivers/mmc/built-in.o
 .text.mmc_set_preinit
                0x00000000        0x0 drivers/mmc/built-in.o
 .text.mmc_register
                0x00000000        0x0 drivers/mmc/built-in.o
 .text.mmc_destroy
                0x00000000        0x0 drivers/mmc/built-in.o
 .rodata.__func__.5197
                0x00000000        0x0 drivers/mmc/built-in.o
 .data          0x00000000        0x0 drivers/mmc/built-in.o
 .bss           0x00000000        0x0 drivers/mmc/built-in.o
 .text          0x00000000        0x0 drivers/mtd/built-in.o
 .text.idr_remove
                0x00000000        0x0 drivers/mtd/built-in.o
 .text.idr_find
                0x00000000        0x0 drivers/mtd/built-in.o
 .text.idr_get_next
                0x00000000        0x0 drivers/mtd/built-in.o
 .text.idr_alloc
                0x00000000        0x0 drivers/mtd/built-in.o
 .text.__mtd_next_device
                0x00000000        0x0 drivers/mtd/built-in.o
 .text.__get_mtd_device
                0x00000000        0x0 drivers/mtd/built-in.o
 .text.get_mtd_device
                0x00000000        0x0 drivers/mtd/built-in.o
 .text.mtd_get_unmapped_area
                0x00000000        0x0 drivers/mtd/built-in.o
 .text.mtd_panic_write
                0x00000000        0x0 drivers/mtd/built-in.o
 .text.mtd_get_fact_prot_info
                0x00000000        0x0 drivers/mtd/built-in.o
 .text.mtd_read_fact_prot_reg
                0x00000000        0x0 drivers/mtd/built-in.o
 .text.mtd_get_user_prot_info
                0x00000000        0x0 drivers/mtd/built-in.o
 .text.mtd_read_user_prot_reg
                0x00000000        0x0 drivers/mtd/built-in.o
 .text.mtd_write_user_prot_reg
                0x00000000        0x0 drivers/mtd/built-in.o
 .text.mtd_lock_user_prot_reg
                0x00000000        0x0 drivers/mtd/built-in.o
 .text.mtd_lock
                0x00000000        0x0 drivers/mtd/built-in.o
 .text.mtd_unlock
                0x00000000        0x0 drivers/mtd/built-in.o
 .text.mtd_is_locked
                0x00000000        0x0 drivers/mtd/built-in.o
 .text.__put_mtd_device
                0x00000000        0x0 drivers/mtd/built-in.o
 .text.put_mtd_device
                0x00000000        0x0 drivers/mtd/built-in.o
 .text.del_mtd_device
                0x00000000        0x0 drivers/mtd/built-in.o
 .text.add_mtd_device
                0x00000000        0x0 drivers/mtd/built-in.o
 .text.get_mtd_device_nm
                0x00000000        0x0 drivers/mtd/built-in.o
 .text.AT91F_BlockErase
                0x00000000        0x0 drivers/mtd/built-in.o
 .text.AT91F_DataFlashPagePgmBuf
                0x00000000        0x0 drivers/mtd/built-in.o
 .text.AT91F_DataflashSetEnv
                0x00000000        0x0 drivers/mtd/built-in.o
 .data          0x00000000        0x0 drivers/mtd/built-in.o
 .bss           0x00000000        0x0 drivers/mtd/built-in.o
 .bss.mtd_table
                0x00000000        0x0 drivers/mtd/built-in.o
 .bss.mtd_idr   0x00000000        0x0 drivers/mtd/built-in.o
 .text          0x00000000        0x0 drivers/mtd/nand/built-in.o
 .text.nand_bch_calculate_ecc
                0x00000000        0x0 drivers/mtd/nand/built-in.o
 .text.nand_bch_correct_data
                0x00000000        0x0 drivers/mtd/nand/built-in.o
 .text.nand_scan
                0x00000000        0x0 drivers/mtd/nand/built-in.o
 .data          0x00000000        0x0 drivers/mtd/nand/built-in.o
 .bss           0x00000000        0x0 drivers/mtd/nand/built-in.o
 .text          0x00000000        0x0 drivers/net/built-in.o
 .data          0x00000000        0x0 drivers/net/built-in.o
 .bss           0x00000000        0x0 drivers/net/built-in.o
 .text          0x00000000        0x0 drivers/serial/built-in.o
 .text.serial_reinit_all
                0x00000000        0x0 drivers/serial/built-in.o
 .data          0x00000000        0x0 drivers/serial/built-in.o
 .bss           0x00000000        0x0 drivers/serial/built-in.o
 .text          0x00000000        0x0 drivers/spi/built-in.o
 .text.spi_do_alloc_slave
                0x00000000        0x0 drivers/spi/built-in.o
 .text.spi_set_wordlen
                0x00000000        0x0 drivers/spi/built-in.o
 .data          0x00000000        0x0 drivers/spi/built-in.o
 .bss           0x00000000        0x0 drivers/spi/built-in.o
 .text          0x00000000        0x0 drivers/usb/host/built-in.o
 .text.rh_check_port_status
                0x00000000        0x0 drivers/usb/host/built-in.o
 .data          0x00000000        0x0 drivers/usb/host/built-in.o
 .bss           0x00000000        0x0 drivers/usb/host/built-in.o
 .text          0x00000000        0x0 fs/built-in.o
 .text.fs_uuid  0x00000000        0x0 fs/built-in.o
 .text.fs_write
                0x00000000        0x0 fs/built-in.o
 .text.do_fs_type
                0x00000000        0x0 fs/built-in.o
 .text.do_fs_uuid
                0x00000000        0x0 fs/built-in.o
 .text.do_save  0x00000000        0x0 fs/built-in.o
 .text.file_fat_read
                0x00000000        0x0 fs/built-in.o
 .text.fat_register_device
                0x00000000        0x0 fs/built-in.o
 .text.file_getfsname
                0x00000000        0x0 fs/built-in.o
 .text.file_read
                0x00000000        0x0 fs/built-in.o
 .text.file_ls  0x00000000        0x0 fs/built-in.o
 .text.file_detectfs
                0x00000000        0x0 fs/built-in.o
 .text.file_cd  0x00000000        0x0 fs/built-in.o
 .rodata.filesystems
                0x00000000        0x0 fs/built-in.o
 .data          0x00000000        0x0 fs/built-in.o
 .data.file_cwd
                0x00000000        0x0 fs/built-in.o
 .data.current_filesystem
                0x00000000        0x0 fs/built-in.o
 .bss           0x00000000        0x0 fs/built-in.o
 .text          0x00000000        0x0 lib/built-in.o
 .text.inflateInit_
                0x00000000        0x0 lib/built-in.o
 .text.fdt_next_subnode
                0x00000000        0x0 lib/built-in.o
 .text.fdt_first_subnode
                0x00000000        0x0 lib/built-in.o
 .text.fdt_parent_offset
                0x00000000        0x0 lib/built-in.o
 .text.fdt_stringlist_contains
                0x00000000        0x0 lib/built-in.o
 .text.fdt_getprop_by_offset
                0x00000000        0x0 lib/built-in.o
 .text.fdt_node_check_compatible
                0x00000000        0x0 lib/built-in.o
 .text.fdt_node_offset_by_compatible
                0x00000000        0x0 lib/built-in.o
 .text.fdt_get_string_index
                0x00000000        0x0 lib/built-in.o
 .text.fdt_get_string
                0x00000000        0x0 lib/built-in.o
 .text.fdt_find_string
                0x00000000        0x0 lib/built-in.o
 .text.fdt_count_strings
                0x00000000        0x0 lib/built-in.o
 .text.fdt_node_offset_by_prop_value
                0x00000000        0x0 lib/built-in.o
 .text.fdt_get_phandle
                0x00000000        0x0 lib/built-in.o
 .text.fdt_node_offset_by_phandle
                0x00000000        0x0 lib/built-in.o
 .text.fdt_get_path
                0x00000000        0x0 lib/built-in.o
 .text.fdt_get_alias
                0x00000000        0x0 lib/built-in.o
 .text.fdt_pack
                0x00000000        0x0 lib/built-in.o
 .text.fdt_appendprop
                0x00000000        0x0 lib/built-in.o
 .text.fdt_set_name
                0x00000000        0x0 lib/built-in.o
 .text._fdt_sw_check_header
                0x00000000        0x0 lib/built-in.o
 .text._fdt_grab_space
                0x00000000        0x0 lib/built-in.o
 .text.fdt_end_node
                0x00000000        0x0 lib/built-in.o
 .text.fdt_add_reservemap_entry
                0x00000000        0x0 lib/built-in.o
 .text.fdt_finish_reservemap
                0x00000000        0x0 lib/built-in.o
 .text.fdt_resize
                0x00000000        0x0 lib/built-in.o
 .text.fdt_finish
                0x00000000        0x0 lib/built-in.o
 .text.fdt_begin_node
                0x00000000        0x0 lib/built-in.o
 .text.fdt_property
                0x00000000        0x0 lib/built-in.o
 .text.fdt_create
                0x00000000        0x0 lib/built-in.o
 .text._fdt_nop_region
                0x00000000        0x0 lib/built-in.o
 .text.str_in_list
                0x00000000        0x0 lib/built-in.o
 .text.fdt_find_regions
                0x00000000        0x0 lib/built-in.o
 .text.fdt_nop_node
                0x00000000        0x0 lib/built-in.o
 .text.fdt_nop_property
                0x00000000        0x0 lib/built-in.o
 .text.fdt_setprop_inplace
                0x00000000        0x0 lib/built-in.o
 .text.fdt_create_empty_tree
                0x00000000        0x0 lib/built-in.o
 .text.crc7     0x00000000        0x0 lib/built-in.o
 .text.crc8     0x00000000        0x0 lib/built-in.o
 .text.gzwrite_progress_finish
                0x00000000        0x0 lib/built-in.o
 .text.gzwrite_progress
                0x00000000        0x0 lib/built-in.o
 .text.gzwrite_progress_init
                0x00000000        0x0 lib/built-in.o
 .text.gzwrite  0x00000000        0x0 lib/built-in.o
 .text.lmb_dump_all
                0x00000000        0x0 lib/built-in.o
 .text.lmb_is_reserved
                0x00000000        0x0 lib/built-in.o
 .text.arch_lmb_reserve
                0x00000000        0x0 lib/built-in.o
 .text.ldiv     0x00000000        0x0 lib/built-in.o
 .text.merge    0x00000000        0x0 lib/built-in.o
 .text.list_sort
                0x00000000        0x0 lib/built-in.o
 .text.crc32_wd_buf
                0x00000000        0x0 lib/built-in.o
 .text.kmem_cache_alloc
                0x00000000        0x0 lib/built-in.o
 .text.get_mem  0x00000000        0x0 lib/built-in.o
 .text.vzalloc  0x00000000        0x0 lib/built-in.o
 .text.copy_from_user
                0x00000000        0x0 lib/built-in.o
 .text.__tolower
                0x00000000        0x0 lib/built-in.o
 .text.strncasecmp
                0x00000000        0x0 lib/built-in.o
 .text.strcasecmp
                0x00000000        0x0 lib/built-in.o
 .text.strrchr  0x00000000        0x0 lib/built-in.o
 .text.strspn   0x00000000        0x0 lib/built-in.o
 .text.strtok   0x00000000        0x0 lib/built-in.o
 .text.strsep   0x00000000        0x0 lib/built-in.o
 .text.strswab  0x00000000        0x0 lib/built-in.o
 .text.bcopy    0x00000000        0x0 lib/built-in.o
 .text.strlcpy  0x00000000        0x0 lib/built-in.o
 .text.memscan  0x00000000        0x0 lib/built-in.o
 .text.check_bytes8
                0x00000000        0x0 lib/built-in.o
 .text.memchr_inv
                0x00000000        0x0 lib/built-in.o
 .text.timer_init
                0x00000000        0x0 lib/built-in.o
 .text.timer_get_us
                0x00000000        0x0 lib/built-in.o
 .text.__assert_fail
                0x00000000        0x0 lib/built-in.o
 .text.panic_str
                0x00000000        0x0 lib/built-in.o
 .text.print_grouped_ull
                0x00000000        0x0 lib/built-in.o
 .rodata.z_errmsg
                0x00000000        0x0 lib/built-in.o
 .rodata.crc7_syndrome_table
                0x00000000        0x0 lib/built-in.o
 .rodata.__func__.4225
                0x00000000        0x0 lib/built-in.o
 .data          0x00000000        0x0 lib/built-in.o
 .data.cur      0x00000000        0x0 lib/built-in.o
 .data.current  0x00000000        0x0 lib/built-in.o
 .bss           0x00000000        0x0 lib/built-in.o
 .bss.___strtok
                0x00000000        0x0 lib/built-in.o
 .text          0x00000000        0x0 net/built-in.o
 .text.add_ip_checksums
                0x00000000        0x0 net/built-in.o
 .text.eth_get_dev_by_index
                0x00000000        0x0 net/built-in.o
 .text.eth_unregister
                0x00000000        0x0 net/built-in.o
 .text.net_get_udp_handler
                0x00000000        0x0 net/built-in.o
 .text.vlan_to_string
                0x00000000        0x0 net/built-in.o
 .text.random_port
                0x00000000        0x0 net/built-in.o
 .data          0x00000000        0x0 net/built-in.o
 .data.tftp_timeout_ms
                0x00000000        0x0 net/built-in.o
 .bss           0x00000000        0x0 net/built-in.o
 .bss.net_busy_flag
                0x00000000        0x0 net/built-in.o
 .text          0x00000000        0x0 arch/arm/lib/eabi_compat.o
 .data          0x00000000        0x0 arch/arm/lib/eabi_compat.o
 .bss           0x00000000        0x0 arch/arm/lib/eabi_compat.o
 .text.__aeabi_unwind_cpp_pr0
                0x00000000        0x0 arch/arm/lib/eabi_compat.o
 .text.__aeabi_unwind_cpp_pr1
                0x00000000        0x0 arch/arm/lib/eabi_compat.o
 .text.__aeabi_memset
                0x00000000        0x0 arch/arm/lib/eabi_compat.o
 .text.__aeabi_memcpy
                0x00000000        0x0 arch/arm/lib/eabi_compat.o
 .data          0x00000000        0x0 /home/newfriday/cross_compile/AT91BootStrap/bin/../lib/gcc/arm-none-linux-gnueabi/4.3.3/libgcc.a(_udivsi3.o)
 .bss           0x00000000        0x0 /home/newfriday/cross_compile/AT91BootStrap/bin/../lib/gcc/arm-none-linux-gnueabi/4.3.3/libgcc.a(_udivsi3.o)
 .data          0x00000000        0x0 /home/newfriday/cross_compile/AT91BootStrap/bin/../lib/gcc/arm-none-linux-gnueabi/4.3.3/libgcc.a(_divsi3.o)
 .bss           0x00000000        0x0 /home/newfriday/cross_compile/AT91BootStrap/bin/../lib/gcc/arm-none-linux-gnueabi/4.3.3/libgcc.a(_divsi3.o)
 .data          0x00000000        0x0 /home/newfriday/cross_compile/AT91BootStrap/bin/../lib/gcc/arm-none-linux-gnueabi/4.3.3/libgcc.a(_lshrdi3.o)
 .bss           0x00000000        0x0 /home/newfriday/cross_compile/AT91BootStrap/bin/../lib/gcc/arm-none-linux-gnueabi/4.3.3/libgcc.a(_lshrdi3.o)
 .data          0x00000000        0x0 /home/newfriday/cross_compile/AT91BootStrap/bin/../lib/gcc/arm-none-linux-gnueabi/4.3.3/libgcc.a(_ashrdi3.o)
 .bss           0x00000000        0x0 /home/newfriday/cross_compile/AT91BootStrap/bin/../lib/gcc/arm-none-linux-gnueabi/4.3.3/libgcc.a(_ashrdi3.o)
 .data          0x00000000        0x0 /home/newfriday/cross_compile/AT91BootStrap/bin/../lib/gcc/arm-none-linux-gnueabi/4.3.3/libgcc.a(_ashldi3.o)
 .bss           0x00000000        0x0 /home/newfriday/cross_compile/AT91BootStrap/bin/../lib/gcc/arm-none-linux-gnueabi/4.3.3/libgcc.a(_ashldi3.o)
 .data          0x00000000        0x0 /home/newfriday/cross_compile/AT91BootStrap/bin/../lib/gcc/arm-none-linux-gnueabi/4.3.3/libgcc.a(_dvmd_lnx.o)
 .bss           0x00000000        0x0 /home/newfriday/cross_compile/AT91BootStrap/bin/../lib/gcc/arm-none-linux-gnueabi/4.3.3/libgcc.a(_dvmd_lnx.o)

Memory Configuration

Name             Origin             Length             Attributes
*default*        0x00000000         0xffffffff

Linker script and memory map

Address of section .text set to 0x21f00000
                0x00000000                . = 0x0
                0x00000000                . = ALIGN (0x4)

.text           0x21f00000    0x33430
 *(.__image_copy_start)
 .__image_copy_start
                0x21f00000        0x0 arch/arm/lib/built-in.o
                0x21f00000                __image_copy_start
 *(.vectors)
 .vectors       0x21f00000      0x300 arch/arm/lib/built-in.o
                0x21f00030                _not_used
                0x21f0002c                _data_abort
                0x21f00034                _irq
                0x21f00040                IRQ_STACK_START_IN
                0x21f00028                _prefetch_abort
                0x21f00000                _start
                0x21f00038                _fiq
                0x21f00020                _undefined_instruction
                0x21f00024                _software_interrupt
 arch/arm/cpu/arm926ejs/start.o(.text*)
 .text          0x21f00300       0x18 arch/arm/cpu/arm926ejs/start.o
                0x21f00300                reset
                0x21f00314                c_runtime_cpu_setup
 *(.text*)
 .text.cleanup_before_linux
                0x21f00318       0x24 arch/arm/cpu/arm926ejs/built-in.o
                0x21f00318                cleanup_before_linux
 .text.flush_dcache_all
                0x21f0033c       0x14 arch/arm/cpu/arm926ejs/built-in.o
                0x21f0033c                flush_dcache_all
 .text.check_cache_range
                0x21f00350       0x1c arch/arm/cpu/arm926ejs/built-in.o
 .text.invalidate_dcache_range
                0x21f0036c       0x30 arch/arm/cpu/arm926ejs/built-in.o
                0x21f0036c                invalidate_dcache_range
 .text.flush_dcache_range
                0x21f0039c       0x38 arch/arm/cpu/arm926ejs/built-in.o
                0x21f0039c                flush_dcache_range
 .text.flush_cache
                0x21f003d4        0x8 arch/arm/cpu/arm926ejs/built-in.o
                0x21f003d4                flush_cache
 .text.l2_cache_disable
                0x21f003dc        0x4 arch/arm/cpu/arm926ejs/built-in.o
                0x21f003dc                l2_cache_disable
 .text          0x21f003e0       0xa0 arch/arm/lib/built-in.o
                0x21f003e0                _main
 .text.relocate_vectors
                0x21f00480       0x90 arch/arm/lib/built-in.o
                0x21f00480                relocate_vectors
                0x21f004a8                relocate_code
 .text.arch_fixup_fdt
                0x21f00510       0x38 arch/arm/lib/built-in.o
                0x21f00510                arch_fixup_fdt
 .text.setup_board_tags
                0x21f00548        0x4 arch/arm/lib/built-in.o
                0x21f00548                setup_board_tags
 .text.boot_jump_vxworks
                0x21f0054c       0x18 arch/arm/lib/built-in.o
                0x21f0054c                boot_jump_vxworks
 .text.boot_prep_vxworks
                0x21f00564       0x4c arch/arm/lib/built-in.o
                0x21f00564                boot_prep_vxworks
 .text.bootz_setup
                0x21f005b0       0x64 arch/arm/lib/built-in.o
                0x21f005b0                bootz_setup
 .text.boot_prep_linux
                0x21f00614      0x180 arch/arm/lib/built-in.o
 .text.boot_jump_linux
                0x21f00794       0xb4 arch/arm/lib/built-in.o
 .text.do_bootm_linux
                0x21f00848       0x68 arch/arm/lib/built-in.o
                0x21f00848                do_bootm_linux
 .text.arch_lmb_reserve
                0x21f008b0       0x24 arch/arm/lib/built-in.o
                0x21f008b0                arch_lmb_reserve
 .text.arch_reserve_stacks
                0x21f008d4       0x1c arch/arm/lib/built-in.o
                0x21f008d4                arch_reserve_stacks
 .text.interrupt_init
                0x21f008f0       0x1c arch/arm/lib/built-in.o
                0x21f008f0                interrupt_init
 .text.enable_interrupts
                0x21f0090c        0x4 arch/arm/lib/built-in.o
                0x21f0090c                enable_interrupts
 .text.disable_interrupts
                0x21f00910        0x8 arch/arm/lib/built-in.o
                0x21f00910                disable_interrupts
 .text.show_regs
                0x21f00918      0x174 arch/arm/lib/built-in.o
                0x21f00918                show_regs
 .text.bad_mode
                0x21f00a8c       0x10 arch/arm/lib/built-in.o
                0x21f00a8c                bad_mode
 .text.do_irq   0x21f00a9c       0x24 arch/arm/lib/built-in.o
                0x21f00a9c                do_irq
 .text.do_fiq   0x21f00ac0       0x24 arch/arm/lib/built-in.o
                0x21f00ac0                do_fiq
 .text.do_not_used
                0x21f00ae4       0x24 arch/arm/lib/built-in.o
                0x21f00ae4                do_not_used
 .text.do_data_abort
                0x21f00b08       0x24 arch/arm/lib/built-in.o
                0x21f00b08                do_data_abort
 .text.do_prefetch_abort
                0x21f00b2c       0x24 arch/arm/lib/built-in.o
                0x21f00b2c                do_prefetch_abort
 .text.do_software_interrupt
                0x21f00b50       0x24 arch/arm/lib/built-in.o
                0x21f00b50                do_software_interrupt
 .text.do_undefined_instruction
                0x21f00b74       0x24 arch/arm/lib/built-in.o
                0x21f00b74                do_undefined_instruction
 .text.reset_misc
                0x21f00b98        0x4 arch/arm/lib/built-in.o
                0x21f00b98                reset_misc
 .text.do_reset
                0x21f00b9c       0x34 arch/arm/lib/built-in.o
                0x21f00b9c                do_reset
 .text.enable_caches
                0x21f00bd0        0xc arch/arm/lib/built-in.o
                0x21f00bd0                enable_caches
 .text.cp_delay
                0x21f00bdc       0x30 arch/arm/lib/built-in.o
 .text.cache_disable
                0x21f00c0c       0x44 arch/arm/lib/built-in.o
 .text.dcache_disable
                0x21f00c50        0x8 arch/arm/lib/built-in.o
                0x21f00c50                dcache_disable
 .text.icache_disable
                0x21f00c58        0x8 arch/arm/lib/built-in.o
                0x21f00c58                icache_disable
 .text.at91_phy_reset
                0x21f00c60       0x90 arch/arm/mach-at91/built-in.o
                0x21f00c60                at91_phy_reset
 .text.at91_uhp_hw_init
                0x21f00cf0       0x28 arch/arm/mach-at91/built-in.o
                0x21f00cf0                at91_uhp_hw_init
 .text.at91_mci_hw_init
                0x21f00d18       0x78 arch/arm/mach-at91/built-in.o
                0x21f00d18                at91_mci_hw_init
 .text.at91_seriald_hw_init
                0x21f00d90       0x38 arch/arm/mach-at91/built-in.o
                0x21f00d90                at91_seriald_hw_init
 .text.at91_macb_hw_init
                0x21f00dc8       0xa8 arch/arm/mach-at91/built-in.o
                0x21f00dc8                at91_macb_hw_init
 .text.at91_spi0_hw_init
                0x21f00e70      0x10c arch/arm/mach-at91/built-in.o
                0x21f00e70                at91_spi0_hw_init
 .text.red_led_on
                0x21f00f7c        0xc arch/arm/mach-at91/built-in.o
                0x21f00f7c                red_led_on
 .text.at91_pll_rate
                0x21f00f88       0x48 arch/arm/mach-at91/built-in.o
 .text.at91_clock_init
                0x21f00fd0      0x180 arch/arm/mach-at91/built-in.o
                0x21f00fd0                at91_clock_init
 .text.arch_preboot_os
                0x21f01150       0x28 arch/arm/mach-at91/built-in.o
                0x21f01150                arch_preboot_os
 .text.print_cpuinfo
                0x21f01178       0x80 arch/arm/mach-at91/built-in.o
                0x21f01178                print_cpuinfo
 .text.arch_cpu_init
                0x21f011f8        0xc arch/arm/mach-at91/built-in.o
                0x21f011f8                arch_cpu_init
 .text.reset_cpu
                0x21f01204       0x18 arch/arm/mach-at91/built-in.o
                0x21f01204                reset_cpu
 .text.timer_init
                0x21f0121c       0x34 arch/arm/mach-at91/built-in.o
                0x21f0121c                timer_init
 .text.get_tbclk
                0x21f01250        0x8 arch/arm/mach-at91/built-in.o
                0x21f01250                get_tbclk
 .text.reset_phy
                0x21f01258        0x4 board/atmel/at91sam9263ek/built-in.o
                0x21f01258                reset_phy
 .text.board_eth_init
                0x21f0125c       0x14 board/atmel/at91sam9263ek/built-in.o
                0x21f0125c                board_eth_init
 .text.dram_init
                0x21f01270       0x20 board/atmel/at91sam9263ek/built-in.o
                0x21f01270                dram_init
 .text.board_init
                0x21f01290      0x280 board/atmel/at91sam9263ek/built-in.o
                0x21f01290                board_init
 .text.board_early_init_f
                0x21f01510       0x20 board/atmel/at91sam9263ek/built-in.o
                0x21f01510                board_early_init_f
 .text.board_mmc_init
                0x21f01530       0x18 board/atmel/at91sam9263ek/built-in.o
                0x21f01530                board_mmc_init
 .text.lcd_show_board_info
                0x21f01548       0x94 board/atmel/at91sam9263ek/built-in.o
                0x21f01548                lcd_show_board_info
 .text.lcd_enable
                0x21f015dc       0x10 board/atmel/at91sam9263ek/built-in.o
                0x21f015dc                lcd_enable
 .text.coloured_LED_init
                0x21f015ec       0x78 board/atmel/at91sam9263ek/built-in.o
                0x21f015ec                coloured_LED_init
 .text.show_boot_progress
                0x21f01664        0x4 common/built-in.o
                0x21f01664                show_boot_progress
 .text.main_loop
                0x21f01668       0x20 common/built-in.o
                0x21f01668                main_loop
 .text.dummy    0x21f01688        0x4 common/built-in.o
 .text.get_version
                0x21f0168c        0x8 common/built-in.o
                0x21f0168c                get_version
 .text.jumptable_init
                0x21f01694      0x200 common/built-in.o
                0x21f01694                jumptable_init
 .text.hash_command
                0x21f01894       0xbc common/built-in.o
                0x21f01894                hash_command
 .text.b_reset  0x21f01950       0x1c common/built-in.o
 .text.static_get
                0x21f0196c       0x1c common/built-in.o
 .text.static_peek
                0x21f01988        0xc common/built-in.o
 .text.file_peek
                0x21f01994        0xc common/built-in.o
 .text.setup_string_in_str
                0x21f019a0       0x2c common/built-in.o
 .text.is_assignment
                0x21f019cc       0x5c common/built-in.o
 .text.mapset   0x21f01a28       0x28 common/built-in.o
 .text.syntax_err
                0x21f01a50        0xc common/built-in.o
 .text.do_showvar
                0x21f01a5c       0xec common/built-in.o
 .text.u_boot_hush_start
                0x21f01b48       0x50 common/built-in.o
                0x21f01b48                u_boot_hush_start
 .text.xmalloc  0x21f01b98       0x20 common/built-in.o
 .text.new_pipe
                0x21f01bb8       0x28 common/built-in.o
 .text.file_get
                0x21f01be0      0x1d8 common/built-in.o
 .text.free_pipe_list
                0x21f01db8       0xec common/built-in.o
 .text.b_free   0x21f01ea4       0x24 common/built-in.o
 .text.xrealloc
                0x21f01ec8       0x20 common/built-in.o
 .text.done_command
                0x21f01ee8       0x8c common/built-in.o
 .text.initialize_context
                0x21f01f74       0x38 common/built-in.o
 .text.done_pipe
                0x21f01fac       0x48 common/built-in.o
 .text.b_addchr
                0x21f01ff4       0x7c common/built-in.o
 .text.done_word
                0x21f02070      0x2bc common/built-in.o
 .text.b_addqchr
                0x21f0232c       0x4c common/built-in.o
 .text.get_local_var
                0x21f02378       0x98 common/built-in.o
                0x21f02378                get_local_var
 .text.set_local_var
                0x21f02410      0x1b4 common/built-in.o
                0x21f02410                set_local_var
 .text.insert_var_value_sub
                0x21f025c4      0x2b0 common/built-in.o
 .text.insert_var_value
                0x21f02874        0x8 common/built-in.o
 .text.run_list_real
                0x21f0287c      0x80c common/built-in.o
 .text.parse_stream_outer
                0x21f03088      0x70c common/built-in.o
 .text.parse_file_outer
                0x21f03794       0x44 common/built-in.o
                0x21f03794                parse_file_outer
 .text.parse_string_outer
                0x21f037d8       0xc8 common/built-in.o
                0x21f037d8                parse_string_outer
 .text.autoboot_command
                0x21f038a0       0xd8 common/built-in.o
                0x21f038a0                autoboot_command
 .text.bootdelay_process
                0x21f03978       0x4c common/built-in.o
                0x21f03978                bootdelay_process
 .text.board_add_ram_info
                0x21f039c4        0x4 common/built-in.o
                0x21f039c4                board_add_ram_info
 .text.display_text_info
                0x21f039c8        0x8 common/built-in.o
 .text.setup_mon_len
                0x21f039d0       0x20 common/built-in.o
 .text.board_get_usable_ram_top
                0x21f039f0       0x18 common/built-in.o
                0x21f039f0                board_get_usable_ram_top
 .text.reserve_round_4k
                0x21f03a08       0x18 common/built-in.o
 .text.reserve_mmu
                0x21f03a20       0x38 common/built-in.o
 .text.reserve_trace
                0x21f03a58        0x8 common/built-in.o
 .text.reserve_uboot
                0x21f03a60       0x30 common/built-in.o
 .text.reserve_malloc
                0x21f03a90       0x14 common/built-in.o
 .text.setup_machine
                0x21f03aa4        0x8 common/built-in.o
 .text.reserve_global_data
                0x21f03aac       0x1c common/built-in.o
 .text.reserve_fdt
                0x21f03ac8       0x60 common/built-in.o
 .text.reserve_stacks
                0x21f03b28       0x1c common/built-in.o
 .text.display_new_sp
                0x21f03b44        0x8 common/built-in.o
 .text.initf_dm
                0x21f03b4c        0x8 common/built-in.o
 .text.reserve_arch
                0x21f03b54        0x8 common/built-in.o
                0x21f03b54                reserve_arch
 .text.arch_cpu_init_dm
                0x21f03b5c        0x8 common/built-in.o
                0x21f03b5c                arch_cpu_init_dm
 .text.reserve_board
                0x21f03b64       0x38 common/built-in.o
 .text.board_init_f
                0x21f03b9c       0x28 common/built-in.o
                0x21f03b9c                board_init_f
 .text.setup_reloc
                0x21f03bc4       0x2c common/built-in.o
 .text.reloc_fdt
                0x21f03bf0       0x30 common/built-in.o
 .text.show_dram_config
                0x21f03c20       0x38 common/built-in.o
 .text.reserve_lcd
                0x21f03c58       0x24 common/built-in.o
 .text.setup_dest_addr
                0x21f03c7c       0x40 common/built-in.o
 .text.dram_init_banksize
                0x21f03cbc       0x20 common/built-in.o
                0x21f03cbc                dram_init_banksize
 .text.setup_dram_config
                0x21f03cdc       0x10 common/built-in.o
 .text.announce_dram_init
                0x21f03cec       0x18 common/built-in.o
 .text.init_baud_rate
                0x21f03d04       0x2c common/built-in.o
 .text.mark_bootstage
                0x21f03d30       0x14 common/built-in.o
 .text.bootstage_relocate
                0x21f03d44        0x8 common/built-in.o
 .text.cpu_secondary_init_r
                0x21f03d4c        0x4 common/built-in.o
                0x21f03d4c                cpu_secondary_init_r
 .text.initr_secondary_cpu
                0x21f03d50       0x10 common/built-in.o
 .text.initr_trace
                0x21f03d60        0x8 common/built-in.o
 .text.initr_reloc_global_data
                0x21f03d68       0x28 common/built-in.o
 .text.initr_barrier
                0x21f03d90        0x8 common/built-in.o
 .text.power_init_board
                0x21f03d98        0x8 common/built-in.o
                0x21f03d98                power_init_board
 .text.initr_announce
                0x21f03da0        0x8 common/built-in.o
 .text.run_main_loop
                0x21f03da8        0xc common/built-in.o
 .text.initr_net
                0x21f03db4       0x20 common/built-in.o
 .text.initr_ethaddr
                0x21f03dd4       0x20 common/built-in.o
 .text.initr_enable_interrupts
                0x21f03df4       0x10 common/built-in.o
 .text.initr_jumptable
                0x21f03e04       0x10 common/built-in.o
 .text.initr_env
                0x21f03e14       0x30 common/built-in.o
 .text.initr_dataflash
                0x21f03e44       0x14 common/built-in.o
 .text.initr_mmc
                0x21f03e58       0x20 common/built-in.o
 .text.initr_nand
                0x21f03e78       0x1c common/built-in.o
 .text.initr_serial
                0x21f03e94       0x10 common/built-in.o
 .text.initr_malloc
                0x21f03ea4       0x1c common/built-in.o
 .text.initr_caches
                0x21f03ec0       0x10 common/built-in.o
 .text.initr_reloc
                0x21f03ed0       0x24 common/built-in.o
 .text.board_init_r
                0x21f03ef4       0x10 common/built-in.o
                0x21f03ef4                board_init_r
 .text.do_go_exec
                0x21f03f04       0x18 common/built-in.o
                0x21f03f04                do_go_exec
 .text.do_go    0x21f03f1c       0x70 common/built-in.o
 .text.do_bootz
                0x21f03f8c       0xf8 common/built-in.o
                0x21f03f8c                do_bootz
 .text.do_bootd
                0x21f04084       0x20 common/built-in.o
                0x21f04084                do_bootd
 .text.do_bootm
                0x21f040a4      0x104 common/built-in.o
                0x21f040a4                do_bootm
 .text.bootm_maybe_autostart
                0x21f041a8       0x74 common/built-in.o
                0x21f041a8                bootm_maybe_autostart
 .text.bootm_disable_interrupts
                0x21f0421c       0x18 common/built-in.o
                0x21f0421c                bootm_disable_interrupts
 .text.bootm_decomp_image
                0x21f04234      0x158 common/built-in.o
                0x21f04234                bootm_decomp_image
 .text.bootm_find_ramdisk_fdt
                0x21f0438c       0x9c common/built-in.o
                0x21f0438c                bootm_find_ramdisk_fdt
 .text.do_bootm_states
                0x21f04428      0x7ac common/built-in.o
                0x21f04428                do_bootm_states
 .text.bootm_os_get_boot_func
                0x21f04bd4       0x10 common/built-in.o
                0x21f04bd4                bootm_os_get_boot_func
 .text.copy_args
                0x21f04be4       0x54 common/built-in.o
 .text.do_bootm_plan9
                0x21f04c38       0xa0 common/built-in.o
 .text.do_bootm_rtems
                0x21f04cd8       0x3c common/built-in.o
 .text.boot_selected_os
                0x21f04d14       0x54 common/built-in.o
                0x21f04d14                boot_selected_os
 .text.do_bootm_standalone
                0x21f04d68       0x64 common/built-in.o
 .text.do_bootm_netbsd
                0x21f04dcc       0xf8 common/built-in.o
 .text.do_bootvx_fdt
                0x21f04ec4      0x108 common/built-in.o
                0x21f04ec4                do_bootvx_fdt
 .text.do_bootm_vxworks
                0x21f04fcc       0x20 common/built-in.o
 .text.do_help  0x21f04fec       0x4c common/built-in.o
 .text.do_version
                0x21f05038       0x38 common/built-in.o
 .text.reverse_strstr
                0x21f05070       0x60 common/built-in.o
 .text.env_attr_lookup
                0x21f050d0      0x130 common/built-in.o
                0x21f050d0                env_attr_lookup
 .text.env_attr_walk
                0x21f05200      0x114 common/built-in.o
                0x21f05200                env_attr_walk
 .text.clear_callback
                0x21f05314       0x10 common/built-in.o
 .text.on_callbacks
                0x21f05324       0x48 common/built-in.o
 .text.find_env_callback
                0x21f0536c       0x60 common/built-in.o
 .text.set_callback
                0x21f053cc       0x94 common/built-in.o
 .text.env_callback_init
                0x21f05460       0xc8 common/built-in.o
                0x21f05460                env_callback_init
 .text.skip_num
                0x21f05528       0x80 common/built-in.o
 .text.clear_flags
                0x21f055a8       0x10 common/built-in.o
 .text.on_flags
                0x21f055b8       0x48 common/built-in.o
 .text.env_flags_validate
                0x21f05600      0x318 common/built-in.o
                0x21f05600                env_flags_validate
 .text.env_flags_parse_varaccess
                0x21f05918       0x50 common/built-in.o
                0x21f05918                env_flags_parse_varaccess
 .text.env_flags_parse_vartype
                0x21f05968       0x4c common/built-in.o
                0x21f05968                env_flags_parse_vartype
 .text.env_parse_flags_to_bin
                0x21f059b4       0x2c common/built-in.o
 .text.set_flags
                0x21f059e0       0x90 common/built-in.o
 .text.env_flags_init
                0x21f05a70       0xbc common/built-in.o
                0x21f05a70                env_flags_init
 .text.env_init
                0x21f05b2c       0x1c common/built-in.o
                0x21f05b2c                env_init
 .text.readenv  0x21f05b48       0xc4 common/built-in.o
 .text.env_relocate_spec
                0x21f05c0c      0x1dc common/built-in.o
                0x21f05c0c                env_relocate_spec
 .text.erase_and_write_env
                0x21f05de8      0x10c common/built-in.o
 .text.saveenv  0x21f05ef4       0xbc common/built-in.o
                0x21f05ef4                saveenv
 .text.do_coninfo
                0x21f05fb0       0xf0 common/built-in.o
 .text.do_echo  0x21f060a0       0xb0 common/built-in.o
 .text.do_exit  0x21f06150       0x30 common/built-in.o
 .text.do_fat_fsinfo
                0x21f06180       0x94 common/built-in.o
 .text.do_fat_ls
                0x21f06214       0x14 common/built-in.o
 .text.do_fat_fsload
                0x21f06228       0x14 common/built-in.o
                0x21f06228                do_fat_fsload
 .text.do_fat_size
                0x21f0623c       0x14 common/built-in.o
                0x21f0623c                do_fat_size
 .text.is_printable_string
                0x21f06250       0x98 common/built-in.o
 .text.set_working_fdt_addr
                0x21f062e8       0x20 common/built-in.o
                0x21f062e8                set_working_fdt_addr
 .text.fdt_valid
                0x21f06308      0x100 common/built-in.o
 .text.print_data
                0x21f06408      0x180 common/built-in.o
 .text.do_fdt   0x21f06588     0x1034 common/built-in.o
 .text.fdt_shrink_to_minimum
                0x21f075bc      0x110 common/built-in.o
                0x21f075bc                fdt_shrink_to_minimum
 .text.fdt_find_and_setprop
                0x21f076cc       0x70 common/built-in.o
                0x21f076cc                fdt_find_and_setprop
 .text.do_fixup_by_path
                0x21f0773c       0x54 common/built-in.o
                0x21f0773c                do_fixup_by_path
 .text.fdt_fixup_ethernet
                0x21f07790      0x160 common/built-in.o
                0x21f07790                fdt_fixup_ethernet
 .text.fdt_find_or_add_subnode
                0x21f078f0       0x68 common/built-in.o
                0x21f078f0                fdt_find_or_add_subnode
 .text.fdt_fixup_memory_banks
                0x21f07958      0x22c common/built-in.o
                0x21f07958                fdt_fixup_memory_banks
 .text.fdt_fixup_memory
                0x21f07b84       0x20 common/built-in.o
                0x21f07b84                fdt_fixup_memory
 .text.fdt_chosen
                0x21f07ba4       0xa8 common/built-in.o
                0x21f07ba4                fdt_chosen
 .text.fdt_initrd
                0x21f07c4c      0x228 common/built-in.o
                0x21f07c4c                fdt_initrd
 .text.do_flerase
                0x21f07e74        0x8 common/built-in.o
 .text.do_protect
                0x21f07e7c      0x12c common/built-in.o
 .text.do_flinfo
                0x21f07fa8       0x10 common/built-in.o
 .text.evalexp  0x21f07fb8       0x6c common/built-in.o
 .text.evalstr  0x21f08024       0x68 common/built-in.o
 .text.binary_test
                0x21f0808c      0x1c0 common/built-in.o
 .text.do_itest
                0x21f0824c       0x94 common/built-in.o
 .text.ktrans   0x21f082e0       0x20 common/built-in.o
 .text.chk1     0x21f08300       0x30 common/built-in.o
 .text.bin_data_init
                0x21f08330       0x2c common/built-in.o
 .text.bin_data_char
                0x21f0835c       0x28 common/built-in.o
 .text.k_data_save
                0x21f08384       0x4c common/built-in.o
 .text.k_data_restore
                0x21f083d0       0x4c common/built-in.o
 .text.load_serial_ymodem
                0x21f0841c       0xf0 common/built-in.o
 .text.getcxmodem
                0x21f0850c       0x20 common/built-in.o
 .text.s1_sendpacket
                0x21f0852c       0x54 common/built-in.o
 .text.do_load_serial_bin
                0x21f08580      0x790 common/built-in.o
 .text.do_mem_loop
                0x21f08d10       0xf4 common/built-in.o
 .text.do_mem_mw
                0x21f08e04       0xc0 common/built-in.o
 .text.do_mem_base
                0x21f08ec4       0x44 common/built-in.o
 .text.do_mem_crc
                0x21f08f08       0x38 common/built-in.o
 .text.do_mem_cmp
                0x21f08f40      0x194 common/built-in.o
 .text.do_mem_cp
                0x21f090d4      0x198 common/built-in.o
 .text.mod_mem  0x21f0926c      0x184 common/built-in.o
 .text.do_mem_nm
                0x21f093f0       0x20 common/built-in.o
 .text.do_mem_mm
                0x21f09410       0x20 common/built-in.o
 .text.do_mem_md
                0x21f09430      0x150 common/built-in.o
 .text.do_sleep
                0x21f09580       0x70 common/built-in.o
 .text.init_mmc_device
                0x21f095f0       0x50 common/built-in.o
 .text.do_mmc_rescan
                0x21f09640       0x24 common/built-in.o
 .text.do_mmcinfo
                0x21f09664      0x37c common/built-in.o
 .text.do_mmcops
                0x21f099e0       0xb4 common/built-in.o
 .text.do_mmc_setdsr
                0x21f09a94       0xac common/built-in.o
 .text.do_mmc_hwpartition
                0x21f09b40      0x4f4 common/built-in.o
 .text.do_mmc_list
                0x21f0a034       0x14 common/built-in.o
 .text.do_mmc_dev
                0x21f0a048      0x13c common/built-in.o
 .text.do_mmc_part
                0x21f0a184       0x60 common/built-in.o
 .text.do_mmc_erase
                0x21f0a1e4       0xe8 common/built-in.o
 .text.do_mmc_write
                0x21f0a2cc      0x100 common/built-in.o
 .text.do_mmc_read
                0x21f0a3cc       0xe4 common/built-in.o
 .text.do_nandboot
                0x21f0a4b0      0x310 common/built-in.o
 .text.nand_print_and_set_info
                0x21f0a7c0       0xec common/built-in.o
 .text.arg_off  0x21f0a8ac       0xc0 common/built-in.o
 .text.arg_off_size
                0x21f0a96c      0x16c common/built-in.o
 .text.do_nand  0x21f0aad8      0xd20 common/built-in.o
 .text.do_ping  0x21f0b7f8       0x74 common/built-in.o
 .text.netboot_common
                0x21f0b86c      0x2c0 common/built-in.o
 .text.do_nfs   0x21f0bb2c        0xc common/built-in.o
 .text.do_dhcp  0x21f0bb38        0xc common/built-in.o
 .text.do_bootp
                0x21f0bb44        0xc common/built-in.o
 .text.do_tftpb
                0x21f0bb50       0x40 common/built-in.o
                0x21f0bb50                do_tftpb
 .text.do_false
                0x21f0bb90        0x8 common/built-in.o
 .text.do_true  0x21f0bb98        0x8 common/built-in.o
 .text.do_test  0x21f0bba0      0x360 common/built-in.o
 .text.usb_get_class_desc
                0x21f0bf00       0xa8 common/built-in.o
 .text.do_usbboot
                0x21f0bfa8        0xc common/built-in.o
 .text.usb_display_class_sub
                0x21f0bfb4      0x174 common/built-in.o
 .text.usb_find_device
                0x21f0c128       0x3c common/built-in.o
 .text.do_usb_start
                0x21f0c164       0x30 common/built-in.o
 .text.usb_show_tree_graph
                0x21f0c194      0x24c common/built-in.o
 .text.usb_display_desc
                0x21f0c3e0      0x130 common/built-in.o
 .text.usb_display_string
                0x21f0c510       0x44 common/built-in.o
 .text.usb_display_config
                0x21f0c554      0x240 common/built-in.o
 .text.do_usb   0x21f0c794      0x76c common/built-in.o
 .text.usb_disable_asynch
                0x21f0cf00       0x20 common/built-in.o
                0x21f0cf00                usb_disable_asynch
 .text.usb_maxpacket
                0x21f0cf20       0x24 common/built-in.o
                0x21f0cf20                usb_maxpacket
 .text.usb_set_maxpacket_ep
                0x21f0cf44       0x74 common/built-in.o
 .text.usb_get_dev_index
                0x21f0cfb8       0x24 common/built-in.o
                0x21f0cfb8                usb_get_dev_index
 .text.usb_alloc_device
                0x21f0cfdc        0x8 common/built-in.o
                0x21f0cfdc                usb_alloc_device
 .text.usb_device_has_child_on_port
                0x21f0cfe4       0x14 common/built-in.o
                0x21f0cfe4                usb_device_has_child_on_port
 .text.usb_alloc_new_device
                0x21f0cff8       0xb0 common/built-in.o
                0x21f0cff8                usb_alloc_new_device
 .text.usb_free_device
                0x21f0d0a8       0x48 common/built-in.o
                0x21f0d0a8                usb_free_device
 .text.usb_legacy_port_reset
                0x21f0d0f0       0x44 common/built-in.o
                0x21f0d0f0                usb_legacy_port_reset
 .text.usb_bulk_msg
                0x21f0d134       0x70 common/built-in.o
                0x21f0d134                usb_bulk_msg
 .text.usb_control_msg
                0x21f0d1a4      0x104 common/built-in.o
                0x21f0d1a4                usb_control_msg
 .text.usb_get_descriptor
                0x21f0d2a8       0x64 common/built-in.o
 .text.get_descriptor_len
                0x21f0d30c       0x90 common/built-in.o
 .text.usb_get_configuration_no
                0x21f0d39c       0xc0 common/built-in.o
                0x21f0d39c                usb_get_configuration_no
 .text.usb_get_string
                0x21f0d45c       0x84 common/built-in.o
 .text.usb_string_sub
                0x21f0d4e0      0x104 common/built-in.o
 .text.usb_string
                0x21f0d5e4      0x104 common/built-in.o
                0x21f0d5e4                usb_string
 .text.usb_select_config
                0x21f0d6e8      0x444 common/built-in.o
                0x21f0d6e8                usb_select_config
 .text.usb_setup_device
                0x21f0db2c      0x178 common/built-in.o
                0x21f0db2c                usb_setup_device
 .text.usb_new_device
                0x21f0dca4       0x34 common/built-in.o
                0x21f0dca4                usb_new_device
 .text.usb_set_interface
                0x21f0dcd8       0xc4 common/built-in.o
                0x21f0dcd8                usb_set_interface
 .text.usb_clear_halt
                0x21f0dd9c       0xac common/built-in.o
                0x21f0dd9c                usb_clear_halt
 .text.usb_stop
                0x21f0de48       0x5c common/built-in.o
                0x21f0de48                usb_stop
 .text.usb_init
                0x21f0dea4      0x144 common/built-in.o
                0x21f0dea4                usb_init
 .text.usb_hub_reset_devices
                0x21f0dfe8        0x4 common/built-in.o
                0x21f0dfe8                usb_hub_reset_devices
 .text.usb_hub_reset
                0x21f0dfec       0x14 common/built-in.o
                0x21f0dfec                usb_hub_reset
 .text.usb_get_hub_descriptor
                0x21f0e000       0x54 common/built-in.o
 .text.usb_get_port_status
                0x21f0e054       0x58 common/built-in.o
 .text.usb_set_port_feature
                0x21f0e0ac       0x54 common/built-in.o
 .text.usb_clear_port_feature
                0x21f0e100       0x54 common/built-in.o
 .text.usb_hub_power_on
                0x21f0e154       0x6c common/built-in.o
 .text.legacy_hub_port_reset
                0x21f0e1c0       0xa4 common/built-in.o
                0x21f0e1c0                legacy_hub_port_reset
 .text.usb_hub_port_connect_change
                0x21f0e264      0x160 common/built-in.o
                0x21f0e264                usb_hub_port_connect_change
 .text.usb_hub_configure
                0x21f0e3c4      0x2f4 common/built-in.o
 .text.usb_hub_probe
                0x21f0e6b8       0x60 common/built-in.o
                0x21f0e6b8                usb_hub_probe
 .text.usb_stor_get_dev
                0x21f0e718       0x2c common/built-in.o
                0x21f0e718                usb_stor_get_dev
 .text.usb_stor_reset
                0x21f0e744       0x14 common/built-in.o
                0x21f0e744                usb_stor_reset
 .text.usb_stor_irq
                0x21f0e758       0x1c common/built-in.o
 .text.usb_request_sense
                0x21f0e774       0x68 common/built-in.o
 .text.usb_stor_get_info
                0x21f0e7dc      0x374 common/built-in.o
                0x21f0e7dc                usb_stor_get_info
 .text.usb_storage_probe
                0x21f0eb50      0x228 common/built-in.o
                0x21f0eb50                usb_storage_probe
 .text.usb_stor_BBB_clear_endpt_stall
                0x21f0ed78       0x48 common/built-in.o
 .text.usb_stor_BBB_reset
                0x21f0edc0       0xd0 common/built-in.o
 .text.usb_stor_CB_reset
                0x21f0ee90       0xd4 common/built-in.o
 .text.usb_stor_BBB_transport
                0x21f0ef64      0x294 common/built-in.o
 .text.usb_stor_CB_comdat
                0x21f0f1f8      0x21c common/built-in.o
 .text.usb_stor_CBI_get_status
                0x21f0f414       0xd0 common/built-in.o
 .text.usb_stor_CB_transport
                0x21f0f4e4      0x1ec common/built-in.o
 .text.usb_stor_write
                0x21f0f6d0      0x198 common/built-in.o
                0x21f0f6d0                usb_stor_write
 .text.usb_stor_read
                0x21f0f868      0x198 common/built-in.o
                0x21f0f868                usb_stor_read
 .text.usb_stor_scan
                0x21f0fa00      0x1fc common/built-in.o
                0x21f0fa00                usb_stor_scan
 .text.usb_stor_info
                0x21f0fbfc       0x74 common/built-in.o
                0x21f0fbfc                usb_stor_info
 .text.do_imgextract
                0x21f0fc70      0x2b8 common/built-in.o
 .text.lcd_get_size
                0x21f0ff28       0x34 common/built-in.o
                0x21f0ff28                lcd_get_size
 .text.lcd_setmem
                0x21f0ff5c       0x30 common/built-in.o
                0x21f0ff5c                lcd_setmem
 .text.lcd_getfgcolor
                0x21f0ff8c       0x10 common/built-in.o
                0x21f0ff8c                lcd_getfgcolor
 .text.lcd_getbgcolor
                0x21f0ff9c       0x10 common/built-in.o
                0x21f0ff9c                lcd_getbgcolor
 .text.lcd_stub_puts
                0x21f0ffac        0x8 common/built-in.o
 .text.lcd_stub_putc
                0x21f0ffb4        0x8 common/built-in.o
 .text.lcd_sync
                0x21f0ffbc       0x3c common/built-in.o
                0x21f0ffbc                lcd_sync
 .text.lcd_logo_plot
                0x21f0fff8       0xfc common/built-in.o
                0x21f0fff8                lcd_logo_plot
 .text.lcd_clear
                0x21f100f4      0x17c common/built-in.o
                0x21f100f4                lcd_clear
 .text.do_lcd_clear
                0x21f10270       0x10 common/built-in.o
 .text.drv_lcd_init
                0x21f10280       0xc8 common/built-in.o
                0x21f10280                drv_lcd_init
 .text.lcd_set_col
                0x21f10348       0x10 common/built-in.o
                0x21f10348                lcd_set_col
 .text.lcd_set_row
                0x21f10358       0x10 common/built-in.o
                0x21f10358                lcd_set_row
 .text.lcd_position_cursor
                0x21f10368       0x54 common/built-in.o
                0x21f10368                lcd_position_cursor
 .text.console_setrow0
                0x21f103bc       0x38 common/built-in.o
 .text.console_moverow0
                0x21f103f4       0x40 common/built-in.o
 .text.console_calc_rowcol
                0x21f10434       0x14 common/built-in.o
                0x21f10434                console_calc_rowcol
 .text.lcd_init_console_rot
                0x21f10448        0x4 common/built-in.o
                0x21f10448                lcd_init_console_rot
 .text.do_lcd_setcursor
                0x21f1044c       0x4c common/built-in.o
 .text.lcd_putc
                0x21f10498      0x2b8 common/built-in.o
                0x21f10498                lcd_putc
 .text.lcd_puts
                0x21f10750       0x44 common/built-in.o
                0x21f10750                lcd_puts
 .text.do_lcd_puts
                0x21f10794       0x20 common/built-in.o
 .text.lcd_printf
                0x21f107b4       0x44 common/built-in.o
                0x21f107b4                lcd_printf
 .text.lcd_init_console
                0x21f107f8       0x7c common/built-in.o
                0x21f107f8                lcd_init_console
 .text.lcd_putc_xy0
                0x21f10874       0x90 common/built-in.o
 .text.get_env_id
                0x21f10904       0x10 common/built-in.o
                0x21f10904                get_env_id
 .text.do_env_delete
                0x21f10914       0xac common/built-in.o
 .text.do_env_exists
                0x21f109c0       0x60 common/built-in.o
 .text._do_env_set
                0x21f10a20      0x1d8 common/built-in.o
 .text.do_env_set
                0x21f10bf8       0x20 common/built-in.o
 .text.setenv   0x21f10c18       0x60 common/built-in.o
                0x21f10c18                setenv
 .text.env_print
                0x21f10c78       0xd0 common/built-in.o
 .text.do_env_print
                0x21f10d48       0xdc common/built-in.o
 .text.setenv_hex
                0x21f10e24       0x38 common/built-in.o
                0x21f10e24                setenv_hex
 .text.do_env   0x21f10e5c       0x5c common/built-in.o
 .text.do_env_import
                0x21f10eb8      0x28c common/built-in.o
 .text.do_env_export
                0x21f11144      0x260 common/built-in.o
 .text.do_env_default
                0x21f113a4       0xb0 common/built-in.o
 .text.do_env_save
                0x21f11454       0x2c common/built-in.o
 .text.envmatch
                0x21f11480       0x64 common/built-in.o
                0x21f11480                envmatch
 .text.getenv_f
                0x21f114e4       0xbc common/built-in.o
                0x21f114e4                getenv_f
 .text.getenv   0x21f115a0       0x80 common/built-in.o
                0x21f115a0                getenv
 .text.do_env_edit
                0x21f11620       0x78 common/built-in.o
 .text.getenv_ulong
                0x21f11698       0x30 common/built-in.o
                0x21f11698                getenv_ulong
 .text.getenv_hex
                0x21f116c8       0x34 common/built-in.o
                0x21f116c8                getenv_hex
 .text.setenv_ulong
                0x21f116fc       0x20 common/built-in.o
                0x21f116fc                setenv_ulong
 .text.env_get_char_spec
                0x21f1171c        0xc common/built-in.o
                0x21f1171c                env_get_char_spec
 .text.env_get_addr
                0x21f11728       0x20 common/built-in.o
                0x21f11728                env_get_addr
 .text.env_get_char_memory
                0x21f11748       0x10 common/built-in.o
                0x21f11748                env_get_char_memory
 .text.env_get_char
                0x21f11758       0x30 common/built-in.o
                0x21f11758                env_get_char
 .text.env_complete
                0x21f11788       0xe4 common/built-in.o
                0x21f11788                env_complete
 .text.env_export
                0x21f1186c       0xa8 common/built-in.o
                0x21f1186c                env_export
 .text.set_default_vars
                0x21f11914       0x40 common/built-in.o
                0x21f11914                set_default_vars
 .text.set_default_env
                0x21f11954       0xc8 common/built-in.o
                0x21f11954                set_default_env
 .text.env_relocate
                0x21f11a1c       0x30 common/built-in.o
                0x21f11a1c                env_relocate
 .text.env_import
                0x21f11a4c       0xe4 common/built-in.o
                0x21f11a4c                env_import
 .text.getenv_default
                0x21f11b30       0x30 common/built-in.o
                0x21f11b30                getenv_default
 .text.getenv_yesno
                0x21f11b60       0x4c common/built-in.o
                0x21f11b60                getenv_yesno
 .text.console_setfile
                0x21f11bac       0xbc common/built-in.o
 .text.fgetc    0x21f11c68       0x2c common/built-in.o
                0x21f11c68                fgetc
 .text.ftstc    0x21f11c94       0x2c common/built-in.o
                0x21f11c94                ftstc
 .text.fputc    0x21f11cc0       0x28 common/built-in.o
                0x21f11cc0                fputc
 .text.fputs    0x21f11ce8       0x28 common/built-in.o
                0x21f11ce8                fputs
 .text.had_ctrlc
                0x21f11d10       0x10 common/built-in.o
                0x21f11d10                had_ctrlc
 .text.clear_ctrlc
                0x21f11d20       0x14 common/built-in.o
                0x21f11d20                clear_ctrlc
 .text.console_init_f
                0x21f11d34       0x10 common/built-in.o
                0x21f11d34                console_init_f
 .text.getc     0x21f11d44       0x24 common/built-in.o
                0x21f11d44                getc
 .text.tstc     0x21f11d68       0x24 common/built-in.o
                0x21f11d68                tstc
 .text.ctrlc    0x21f11d8c       0x5c common/built-in.o
                0x21f11d8c                ctrlc
 .text.putc     0x21f11de8       0x28 common/built-in.o
                0x21f11de8                putc
 .text.puts     0x21f11e10       0x28 common/built-in.o
                0x21f11e10                puts
 .text.search_device
                0x21f11e38       0x28 common/built-in.o
                0x21f11e38                search_device
 .text.console_assign
                0x21f11e60       0x40 common/built-in.o
                0x21f11e60                console_assign
 .text.confirm_yesno
                0x21f11ea0       0xd4 common/built-in.o
                0x21f11ea0                confirm_yesno
 .text.vprintf  0x21f11f74       0x38 common/built-in.o
                0x21f11f74                vprintf
 .text.printf   0x21f11fac       0x5c common/built-in.o
                0x21f11fac                printf
 .text.on_console
                0x21f12008       0xb8 common/built-in.o
 .text.stdio_print_current_devices
                0x21f120c0       0xb8 common/built-in.o
                0x21f120c0                stdio_print_current_devices
 .text.console_init_r
                0x21f12178      0x154 common/built-in.o
                0x21f12178                console_init_r
 .text.serial_printf
                0x21f122cc       0x4c common/built-in.o
                0x21f122cc                serial_printf
 .text.initf_malloc
                0x21f12318        0x8 common/built-in.o
                0x21f12318                initf_malloc
 .text.mem_malloc_init
                0x21f12320       0x40 common/built-in.o
                0x21f12320                mem_malloc_init
 .text.sbrk     0x21f12360       0x6c common/built-in.o
                0x21f12360                sbrk
 .text.malloc_trim
                0x21f123cc       0xd4 common/built-in.o
                0x21f123cc                malloc_trim
 .text.free     0x21f124a0      0x23c common/built-in.o
                0x21f124a0                free
 .text.malloc   0x21f126dc      0x650 common/built-in.o
                0x21f126dc                malloc
 .text.memalign
                0x21f12d2c      0x110 common/built-in.o
                0x21f12d2c                memalign
 .text.calloc   0x21f12e3c       0xe0 common/built-in.o
                0x21f12e3c                calloc
 .text.realloc  0x21f12f1c      0x48c common/built-in.o
                0x21f12f1c                realloc
 .text.image_multi_count
                0x21f133a8       0x24 common/built-in.o
                0x21f133a8                image_multi_count
 .text.get_table_entry_name
                0x21f133cc       0x28 common/built-in.o
                0x21f133cc                get_table_entry_name
 .text.genimg_get_os_name
                0x21f133f4       0x18 common/built-in.o
                0x21f133f4                genimg_get_os_name
 .text.genimg_get_arch_name
                0x21f1340c       0x18 common/built-in.o
                0x21f1340c                genimg_get_arch_name
 .text.genimg_get_type_name
                0x21f13424       0x18 common/built-in.o
                0x21f13424                genimg_get_type_name
 .text.genimg_get_comp_name
                0x21f1343c       0x18 common/built-in.o
                0x21f1343c                genimg_get_comp_name
 .text.genimg_has_config
                0x21f13454        0x8 common/built-in.o
                0x21f13454                genimg_has_config
 .text.boot_get_setup
                0x21f1345c        0x8 common/built-in.o
                0x21f1345c                boot_get_setup
 .text.on_loadaddr
                0x21f13464       0x38 common/built-in.o
 .text.genimg_get_kernel_addr_fit
                0x21f1349c       0x24 common/built-in.o
                0x21f1349c                genimg_get_kernel_addr_fit
 .text.getenv_bootm_low
                0x21f134c0       0x30 common/built-in.o
                0x21f134c0                getenv_bootm_low
 .text.image_multi_getimg
                0x21f134f0       0xac common/built-in.o
                0x21f134f0                image_multi_getimg
 .text.genimg_get_format
                0x21f1359c       0x48 common/built-in.o
                0x21f1359c                genimg_get_format
 .text.genimg_get_image
                0x21f135e4       0x88 common/built-in.o
                0x21f135e4                genimg_get_image
 .text.genimg_print_size
                0x21f1366c       0x30 common/built-in.o
                0x21f1366c                genimg_print_size
 .text.image_print_contents
                0x21f1369c      0x1ac common/built-in.o
                0x21f1369c                image_print_contents
 .text.memmove_wd
                0x21f13848        0xc common/built-in.o
                0x21f13848                memmove_wd
 .text.boot_ramdisk_high
                0x21f13854      0x12c common/built-in.o
                0x21f13854                boot_ramdisk_high
 .text.image_setup_linux
                0x21f13980       0x88 common/built-in.o
                0x21f13980                image_setup_linux
 .text.getenv_bootm_size
                0x21f13a08       0x5c common/built-in.o
                0x21f13a08                getenv_bootm_size
 .text.getenv_bootm_mapsize
                0x21f13a64       0x30 common/built-in.o
                0x21f13a64                getenv_bootm_mapsize
 .text.image_check_dcrc
                0x21f13a94       0x60 common/built-in.o
                0x21f13a94                image_check_dcrc
 .text.image_check_hcrc
                0x21f13af4       0x68 common/built-in.o
                0x21f13af4                image_check_hcrc
 .text.boot_get_ramdisk
                0x21f13b5c      0x274 common/built-in.o
                0x21f13b5c                boot_get_ramdisk
 .text.ft_verify_fdt
                0x21f13dd0        0x8 common/built-in.o
                0x21f13dd0                ft_verify_fdt
 .text.image_setup_libfdt
                0x21f13dd8      0x114 common/built-in.o
                0x21f13dd8                image_setup_libfdt
 .text.fdt_error
                0x21f13eec       0x2c common/built-in.o
 .text.boot_get_fdt
                0x21f13f18      0x31c common/built-in.o
                0x21f13f18                boot_get_fdt
 .text.boot_relocate_fdt
                0x21f14234      0x1b8 common/built-in.o
                0x21f14234                boot_relocate_fdt
 .text.boot_fdt_add_mem_rsv_regions
                0x21f143ec       0x8c common/built-in.o
                0x21f143ec                boot_fdt_add_mem_rsv_regions
 .text.get_ram_size
                0x21f14478      0x110 common/built-in.o
                0x21f14478                get_ram_size
 .text.get_effective_memsize
                0x21f14588        0x8 common/built-in.o
                0x21f14588                get_effective_memsize
 .text.stdio_get_list
                0x21f14590        0xc common/built-in.o
                0x21f14590                stdio_get_list
 .text.stdio_init_tables
                0x21f1459c       0x1c common/built-in.o
                0x21f1459c                stdio_init_tables
 .text.stdio_serial_tstc
                0x21f145b8        0x4 common/built-in.o
 .text.stdio_serial_getc
                0x21f145bc        0x4 common/built-in.o
 .text.stdio_serial_puts
                0x21f145c0        0x8 common/built-in.o
 .text.stdio_serial_putc
                0x21f145c8        0x8 common/built-in.o
 .text.stdio_clone
                0x21f145d0       0x38 common/built-in.o
                0x21f145d0                stdio_clone
 .text.stdio_register_dev
                0x21f14608       0x50 common/built-in.o
                0x21f14608                stdio_register_dev
 .text.stdio_register
                0x21f14658        0x8 common/built-in.o
                0x21f14658                stdio_register
 .text.stdio_add_devices
                0x21f14660       0x80 common/built-in.o
                0x21f14660                stdio_add_devices
 .text.stdio_get_by_name
                0x21f146e0       0x54 common/built-in.o
                0x21f146e0                stdio_get_by_name
 .text.cli_init
                0x21f14734        0x4 common/built-in.o
                0x21f14734                cli_init
 .text.cli_loop
                0x21f14738        0xc common/built-in.o
                0x21f14738                cli_loop
 .text.run_command_list
                0x21f14744       0x5c common/built-in.o
                0x21f14744                run_command_list
 .text.run_command
                0x21f147a0       0x10 common/built-in.o
                0x21f147a0                run_command
 .text.do_run   0x21f147b0       0x70 common/built-in.o
                0x21f147b0                do_run
 .text.delete_char
                0x21f14820       0xdc common/built-in.o
 .text.cread_add_char
                0x21f148fc       0xf0 common/built-in.o
 .text.cread_add_str
                0x21f149ec       0x50 common/built-in.o
 .text.cli_readline_into_buffer
                0x21f14a3c      0x9c0 common/built-in.o
                0x21f14a3c                cli_readline_into_buffer
 .text.cli_readline
                0x21f153fc       0x1c common/built-in.o
                0x21f153fc                cli_readline
 .text.cmd_get_data_size
                0x21f15418       0x78 common/built-in.o
                0x21f15418                cmd_get_data_size
 .text.cmd_usage
                0x21f15490       0x5c common/built-in.o
                0x21f15490                cmd_usage
 .text.var_complete
                0x21f154ec       0x84 common/built-in.o
                0x21f154ec                var_complete
 .text.find_cmd_tbl
                0x21f15570       0xa0 common/built-in.o
                0x21f15570                find_cmd_tbl
 .text.find_cmd
                0x21f15610       0x28 common/built-in.o
                0x21f15610                find_cmd
 .text.cmd_process
                0x21f15638       0xf0 common/built-in.o
                0x21f15638                cmd_process
 .text.cmd_auto_complete
                0x21f15728      0x4b4 common/built-in.o
                0x21f15728                cmd_auto_complete
 .text._do_help
                0x21f15bdc      0x180 common/built-in.o
                0x21f15bdc                _do_help
 .text.xyzModem_error
                0x21f15d5c       0x9c common/built-in.o
                0x21f15d5c                xyzModem_error
 .text.CYGACC_COMM_IF_PUTC
                0x21f15df8        0x8 common/built-in.o
 .text.CYGACC_COMM_IF_GETC_TIMEOUT
                0x21f15e00       0x5c common/built-in.o
 .text.xyzModem_flush
                0x21f15e5c       0x28 common/built-in.o
 .text.xyzModem_stream_terminate
                0x21f15e84       0xd4 common/built-in.o
                0x21f15e84                xyzModem_stream_terminate
 .text.xyzModem_stream_close
                0x21f15f58       0x4c common/built-in.o
                0x21f15f58                xyzModem_stream_close
 .text.xyzModem_get_hdr
                0x21f15fa4      0x284 common/built-in.o
 .text.xyzModem_stream_read
                0x21f16228      0x284 common/built-in.o
                0x21f16228                xyzModem_stream_read
 .text.xyzModem_stream_open
                0x21f164ac      0x26c common/built-in.o
                0x21f164ac                xyzModem_stream_open
 .text.common_diskboot
                0x21f16718      0x25c common/built-in.o
                0x21f16718                common_diskboot
 .text.get_dev_hwpart
                0x21f16974       0xa4 disk/built-in.o
 .text.get_device
                0x21f16a18      0x124 disk/built-in.o
                0x21f16a18                get_device
 .text.get_partition_info
                0x21f16b3c       0x24 disk/built-in.o
                0x21f16b3c                get_partition_info
 .text.get_device_and_partition
                0x21f16b60      0x454 disk/built-in.o
                0x21f16b60                get_device_and_partition
 .text.print_part
                0x21f16fb4       0xf8 disk/built-in.o
                0x21f16fb4                print_part
 .text.dev_print
                0x21f170ac      0x224 disk/built-in.o
                0x21f170ac                dev_print
 .text.init_part
                0x21f172d0       0x20 disk/built-in.o
                0x21f172d0                init_part
 .text.test_block_type
                0x21f172f0       0x80 disk/built-in.o
 .text.get_partition_info_extended
                0x21f17370      0x314 disk/built-in.o
 .text.get_partition_info_dos
                0x21f17684       0x28 disk/built-in.o
                0x21f17684                get_partition_info_dos
 .text.print_partition_extended
                0x21f176ac      0x264 disk/built-in.o
 .text.print_part_dos
                0x21f17910       0x34 disk/built-in.o
                0x21f17910                print_part_dos
 .text.test_part_dos
                0x21f17944       0x64 disk/built-in.o
                0x21f17944                test_part_dos
 .text.configuration_get_cmap
                0x21f179a8       0x14 drivers/built-in.o
                0x21f179a8                configuration_get_cmap
 .text.lcd_logo_set_cmap
                0x21f179bc       0x48 drivers/built-in.o
                0x21f179bc                lcd_logo_set_cmap
 .text.lcd_setcolreg
                0x21f17a04       0x2c drivers/built-in.o
                0x21f17a04                lcd_setcolreg
 .text.lcd_ctrl_init
                0x21f17a30      0x1c4 drivers/built-in.o
                0x21f17a30                lcd_ctrl_init
 .text.at91_set_port_pullup
                0x21f17bf4       0x24 drivers/gpio/built-in.o
 .text.at91_pio_get_port
                0x21f17c18       0x74 drivers/gpio/built-in.o
 .text.at91_get_pio_value
                0x21f17c8c       0x40 drivers/gpio/built-in.o
                0x21f17c8c                at91_get_pio_value
 .text.gpio_get_value
                0x21f17ccc        0xc drivers/gpio/built-in.o
                0x21f17ccc                gpio_get_value
 .text.at91_set_pio_value
                0x21f17cd8       0x4c drivers/gpio/built-in.o
                0x21f17cd8                at91_set_pio_value
 .text.gpio_set_value
                0x21f17d24       0x1c drivers/gpio/built-in.o
                0x21f17d24                gpio_set_value
 .text.at91_set_pio_output
                0x21f17d40       0x5c drivers/gpio/built-in.o
                0x21f17d40                at91_set_pio_output
 .text.at91_set_pio_input
                0x21f17d9c       0x54 drivers/gpio/built-in.o
                0x21f17d9c                at91_set_pio_input
 .text.at91_set_pio_pullup
                0x21f17df0       0x3c drivers/gpio/built-in.o
                0x21f17df0                at91_set_pio_pullup
 .text.at91_set_b_periph
                0x21f17e2c       0x5c drivers/gpio/built-in.o
                0x21f17e2c                at91_set_b_periph
 .text.at91_set_a_periph
                0x21f17e88       0x5c drivers/gpio/built-in.o
                0x21f17e88                at91_set_a_periph
 .text.board_mmc_getwp
                0x21f17ee4        0x8 drivers/mmc/built-in.o
                0x21f17ee4                board_mmc_getwp
 .text.mmc_getwp
                0x21f17eec       0x38 drivers/mmc/built-in.o
                0x21f17eec                mmc_getwp
 .text.board_mmc_getcd
                0x21f17f24        0x8 drivers/mmc/built-in.o
                0x21f17f24                board_mmc_getcd
 .text.mmc_send_cmd
                0x21f17f2c       0x18 drivers/mmc/built-in.o
                0x21f17f2c                mmc_send_cmd
 .text.mmc_set_blocklen
                0x21f17f44       0x40 drivers/mmc/built-in.o
                0x21f17f44                mmc_set_blocklen
 .text.mmc_send_op_cond_iter
                0x21f17f84       0x80 drivers/mmc/built-in.o
 .text.mmc_send_ext_csd
                0x21f18004       0x4c drivers/mmc/built-in.o
 .text.mmc_getcd
                0x21f18050       0x38 drivers/mmc/built-in.o
                0x21f18050                mmc_getcd
 .text.sd_switch
                0x21f18088       0x64 drivers/mmc/built-in.o
 .text.mmc_set_ios
                0x21f180ec       0x20 drivers/mmc/built-in.o
 .text.mmc_set_clock
                0x21f1810c       0x24 drivers/mmc/built-in.o
                0x21f1810c                mmc_set_clock
 .text.mmc_set_bus_width
                0x21f18130        0x8 drivers/mmc/built-in.o
 .text.board_mmc_power_init
                0x21f18138        0x4 drivers/mmc/built-in.o
                0x21f18138                board_mmc_power_init
 .text.mmc_set_dsr
                0x21f1813c        0xc drivers/mmc/built-in.o
                0x21f1813c                mmc_set_dsr
 .text.cpu_mmc_init
                0x21f18148        0x8 drivers/mmc/built-in.o
                0x21f18148                cpu_mmc_init
 .text.get_mmc_num
                0x21f18150       0x10 drivers/mmc/built-in.o
                0x21f18150                get_mmc_num
 .text.find_mmc_device
                0x21f18160       0x4c drivers/mmc/built-in.o
                0x21f18160                find_mmc_device
 .text.mmc_bread
                0x21f181ac      0x14c drivers/mmc/built-in.o
 .text.print_mmc_devices
                0x21f182f8       0xcc drivers/mmc/built-in.o
                0x21f182f8                print_mmc_devices
 .text.mmc_go_idle
                0x21f183c4       0x50 drivers/mmc/built-in.o
 .text.mmc_start_init
                0x21f18414      0x294 drivers/mmc/built-in.o
                0x21f18414                mmc_start_init
 .text.mmc_initialize
                0x21f186a8       0x7c drivers/mmc/built-in.o
                0x21f186a8                mmc_initialize
 .text.mmc_send_status
                0x21f18724       0xd8 drivers/mmc/built-in.o
                0x21f18724                mmc_send_status
 .text.mmc_switch
                0x21f187fc       0x54 drivers/mmc/built-in.o
 .text.mmc_hwpart_config
                0x21f18850      0x458 drivers/mmc/built-in.o
                0x21f18850                mmc_hwpart_config
 .text.mmc_set_capacity
                0x21f18ca8       0x9c drivers/mmc/built-in.o
 .text.mmc_switch_part
                0x21f18d44       0x58 drivers/mmc/built-in.o
                0x21f18d44                mmc_switch_part
 .text.mmc_select_hwpart
                0x21f18d9c       0x64 drivers/mmc/built-in.o
                0x21f18d9c                mmc_select_hwpart
 .text.mmc_startup
                0x21f18e00      0xda4 drivers/mmc/built-in.o
 .text.mmc_init
                0x21f19ba4      0x100 drivers/mmc/built-in.o
                0x21f19ba4                mmc_init
 .text.mmc_get_dev
                0x21f19ca4       0x28 drivers/mmc/built-in.o
                0x21f19ca4                mmc_get_dev
 .text.mmc_create
                0x21f19ccc       0xfc drivers/mmc/built-in.o
                0x21f19ccc                mmc_create
 .text.atmel_mci_get_version
                0x21f19dc8       0x10 drivers/mmc/built-in.o
 .text.mci_data_read
                0x21f19dd8       0x3c drivers/mmc/built-in.o
 .text.mci_data_write
                0x21f19e14       0x3c drivers/mmc/built-in.o
 .text.atmel_mci_init
                0x21f19e50       0xb8 drivers/mmc/built-in.o
                0x21f19e50                atmel_mci_init
 .text.mci_set_mode
                0x21f19f08      0x154 drivers/mmc/built-in.o
 .text.mci_init
                0x21f1a05c       0x50 drivers/mmc/built-in.o
 .text.mci_set_ios
                0x21f1a0ac       0x70 drivers/mmc/built-in.o
 .text.dump_cmd
                0x21f1a11c       0x28 drivers/mmc/built-in.o
 .text.mci_send_cmd
                0x21f1a144      0x2b8 drivers/mmc/built-in.o
 .text.mmc_bwrite
                0x21f1a3fc      0x16c drivers/mmc/built-in.o
                0x21f1a3fc                mmc_bwrite
 .text.mmc_berase
                0x21f1a568      0x198 drivers/mmc/built-in.o
                0x21f1a568                mmc_berase
 .text.mtd_erase
                0x21f1a700       0xc4 drivers/mtd/built-in.o
                0x21f1a700                mtd_erase
 .text.mtd_read
                0x21f1a7c4       0xd0 drivers/mtd/built-in.o
                0x21f1a7c4                mtd_read
 .text.mtd_write
                0x21f1a894       0xbc drivers/mtd/built-in.o
                0x21f1a894                mtd_write
 .text.mtd_read_oob
                0x21f1a950       0x5c drivers/mtd/built-in.o
                0x21f1a950                mtd_read_oob
 .text.mtd_block_isbad
                0x21f1a9ac       0x50 drivers/mtd/built-in.o
                0x21f1a9ac                mtd_block_isbad
 .text.mtd_block_markbad
                0x21f1a9fc       0x60 drivers/mtd/built-in.o
                0x21f1a9fc                mtd_block_markbad
 .text.AT91F_DataFlashWriteBuffer
                0x21f1aa5c       0xec drivers/mtd/built-in.o
                0x21f1aa5c                AT91F_DataFlashWriteBuffer
 .text.AT91F_DataFlashGetStatus
                0x21f1ab48       0x58 drivers/mtd/built-in.o
                0x21f1ab48                AT91F_DataFlashGetStatus
 .text.AT91F_DataflashProbe
                0x21f1aba0       0x28 drivers/mtd/built-in.o
                0x21f1aba0                AT91F_DataflashProbe
 .text.AT91F_DataFlashWaitReady
                0x21f1abc8       0x44 drivers/mtd/built-in.o
                0x21f1abc8                AT91F_DataFlashWaitReady
 .text.AT91F_DataFlashSendCommand
                0x21f1ac0c      0x110 drivers/mtd/built-in.o
                0x21f1ac0c                AT91F_DataFlashSendCommand
 .text.AT91F_WriteBufferToMain
                0x21f1ad1c       0x5c drivers/mtd/built-in.o
                0x21f1ad1c                AT91F_WriteBufferToMain
 .text.AT91F_PageErase
                0x21f1ad78       0x28 drivers/mtd/built-in.o
                0x21f1ad78                AT91F_PageErase
 .text.AT91F_MainMemoryToBufferTransfert
                0x21f1ada0       0x4c drivers/mtd/built-in.o
                0x21f1ada0                AT91F_MainMemoryToBufferTransfert
 .text.AT91F_PartialPageWrite
                0x21f1adec       0xc4 drivers/mtd/built-in.o
                0x21f1adec                AT91F_PartialPageWrite
 .text.AT91F_DataFlashWrite
                0x21f1aeb0      0x17c drivers/mtd/built-in.o
                0x21f1aeb0                AT91F_DataFlashWrite
 .text.AT91F_DataFlashContinuousRead
                0x21f1b02c       0x5c drivers/mtd/built-in.o
                0x21f1b02c                AT91F_DataFlashContinuousRead
 .text.AT91F_DataFlashRead
                0x21f1b088       0x94 drivers/mtd/built-in.o
                0x21f1b088                AT91F_DataFlashRead
 .text.AT91F_DataflashSelect
                0x21f1b11c       0x4c drivers/mtd/built-in.o
                0x21f1b11c                AT91F_DataflashSelect
 .text.addr_dataflash
                0x21f1b168       0x20 drivers/mtd/built-in.o
                0x21f1b168                addr_dataflash
 .text.size_dataflash
                0x21f1b188       0x34 drivers/mtd/built-in.o
                0x21f1b188                size_dataflash
 .text.prot_dataflash
                0x21f1b1bc       0x60 drivers/mtd/built-in.o
                0x21f1b1bc                prot_dataflash
 .text.dataflash_real_protect
                0x21f1b21c       0xc4 drivers/mtd/built-in.o
                0x21f1b21c                dataflash_real_protect
 .text.dataflash_perror
                0x21f1b2e0       0x94 drivers/mtd/built-in.o
                0x21f1b2e0                dataflash_perror
 .text.dataflash_print_info
                0x21f1b374      0x134 drivers/mtd/built-in.o
                0x21f1b374                dataflash_print_info
 .text.write_dataflash
                0x21f1b4a8       0x88 drivers/mtd/built-in.o
                0x21f1b4a8                write_dataflash
 .text.read_dataflash
                0x21f1b530       0x64 drivers/mtd/built-in.o
                0x21f1b530                read_dataflash
 .text.AT91F_DataflashInit
                0x21f1b594      0x210 drivers/mtd/built-in.o
                0x21f1b594                AT91F_DataflashInit
 .text.nand_init
                0x21f1b7a4       0x28 drivers/mtd/nand/built-in.o
                0x21f1b7a4                nand_init
 .text.nand_register
                0x21f1b7cc       0x88 drivers/mtd/nand/built-in.o
                0x21f1b7cc                nand_register
 .text.bbt_get_ver_offs
                0x21f1b854       0x1c drivers/mtd/nand/built-in.o
 .text.nand_isbad_bbt
                0x21f1b870       0x50 drivers/mtd/nand/built-in.o
                0x21f1b870                nand_isbad_bbt
 .text.read_bbt
                0x21f1b8c0      0x20c drivers/mtd/nand/built-in.o
 .text.read_abs_bbt
                0x21f1bacc       0xcc drivers/mtd/nand/built-in.o
 .text.scan_read
                0x21f1bb98       0xf4 drivers/mtd/nand/built-in.o
 .text.write_bbt
                0x21f1bc8c      0x668 drivers/mtd/nand/built-in.o
 .text.nand_update_bbt
                0x21f1c2f4      0x124 drivers/mtd/nand/built-in.o
 .text.nand_markbad_bbt
                0x21f1c418       0x60 drivers/mtd/nand/built-in.o
                0x21f1c418                nand_markbad_bbt
 .text.mark_bbt_region
                0x21f1c478      0x188 drivers/mtd/nand/built-in.o
 .text.verify_bbt_descr
                0x21f1c600      0x154 drivers/mtd/nand/built-in.o
 .text.create_bbt
                0x21f1c754      0x220 drivers/mtd/nand/built-in.o
 .text.search_bbt
                0x21f1c974      0x1b4 drivers/mtd/nand/built-in.o
 .text.nand_scan_bbt
                0x21f1cb28      0x4b4 drivers/mtd/nand/built-in.o
                0x21f1cb28                nand_scan_bbt
 .text.nand_default_bbt
                0x21f1cfdc       0xc8 drivers/mtd/nand/built-in.o
                0x21f1cfdc                nand_default_bbt
 .text.check_skip_len
                0x21f1d0a4       0xa8 drivers/mtd/nand/built-in.o
 .text.nand_read_skip_bad
                0x21f1d14c      0x260 drivers/mtd/nand/built-in.o
                0x21f1d14c                nand_read_skip_bad
 .text.nand_verify
                0x21f1d3ac       0xf8 drivers/mtd/nand/built-in.o
                0x21f1d3ac                nand_verify
 .text.nand_write_skip_bad
                0x21f1d4a4      0x2e8 drivers/mtd/nand/built-in.o
                0x21f1d4a4                nand_write_skip_bad
 .text.nand_verify_page_oob
                0x21f1d78c       0xbc drivers/mtd/nand/built-in.o
                0x21f1d78c                nand_verify_page_oob
 .text.nand_erase_opts
                0x21f1d848      0x384 drivers/mtd/nand/built-in.o
                0x21f1d848                nand_erase_opts
 .text.nand_calculate_ecc
                0x21f1dbcc       0xf8 drivers/mtd/nand/built-in.o
                0x21f1dbcc                nand_calculate_ecc
 .text.nand_correct_data
                0x21f1dcc4      0x12c drivers/mtd/nand/built-in.o
                0x21f1dcc4                nand_correct_data
 .text.generic_ffs
                0x21f1ddf0       0x58 drivers/mtd/nand/built-in.o
 .text.generic_fls
                0x21f1de48       0x58 drivers/mtd/nand/built-in.o
 .text.nand_release_device
                0x21f1dea0       0x18 drivers/mtd/nand/built-in.o
 .text.nand_read_byte
                0x21f1deb8       0x14 drivers/mtd/nand/built-in.o
                0x21f1deb8                nand_read_byte
 .text.nand_read_byte16
                0x21f1decc       0x14 drivers/mtd/nand/built-in.o
 .text.nand_read_word
                0x21f1dee0       0x10 drivers/mtd/nand/built-in.o
 .text.nand_write_byte
                0x21f1def0       0x24 drivers/mtd/nand/built-in.o
 .text.nand_write_byte16
                0x21f1df14       0x24 drivers/mtd/nand/built-in.o
 .text.nand_write_buf
                0x21f1df38       0x28 drivers/mtd/nand/built-in.o
                0x21f1df38                nand_write_buf
 .text.nand_read_buf
                0x21f1df60       0x2c drivers/mtd/nand/built-in.o
                0x21f1df60                nand_read_buf
 .text.nand_write_buf16
                0x21f1df8c       0x30 drivers/mtd/nand/built-in.o
                0x21f1df8c                nand_write_buf16
 .text.nand_read_buf16
                0x21f1dfbc       0x38 drivers/mtd/nand/built-in.o
                0x21f1dfbc                nand_read_buf16
 .text.nand_check_wp
                0x21f1dff4       0x4c drivers/mtd/nand/built-in.o
 .text.nand_get_device
                0x21f1e040       0x10 drivers/mtd/nand/built-in.o
 .text.nand_block_bad
                0x21f1e050      0x1d0 drivers/mtd/nand/built-in.o
 .text.nand_read_page_raw
                0x21f1e220       0x44 drivers/mtd/nand/built-in.o
 .text.nand_read_page_raw_syndrome
                0x21f1e264       0xd0 drivers/mtd/nand/built-in.o
 .text.nand_read_page_swecc
                0x21f1e334      0x138 drivers/mtd/nand/built-in.o
 .text.nand_read_subpage
                0x21f1e46c      0x2b8 drivers/mtd/nand/built-in.o
 .text.nand_read_page_hwecc
                0x21f1e724      0x154 drivers/mtd/nand/built-in.o
 .text.nand_read_page_hwecc_oob_first
                0x21f1e878      0x154 drivers/mtd/nand/built-in.o
 .text.nand_read_page_syndrome
                0x21f1e9cc      0x13c drivers/mtd/nand/built-in.o
 .text.nand_setup_read_retry
                0x21f1eb08       0x30 drivers/mtd/nand/built-in.o
 .text.nand_read_oob_std
                0x21f1eb38       0x3c drivers/mtd/nand/built-in.o
 .text.nand_read_oob_syndrome
                0x21f1eb74      0x110 drivers/mtd/nand/built-in.o
 .text.nand_write_oob_std
                0x21f1ec84       0x70 drivers/mtd/nand/built-in.o
 .text.nand_write_oob_syndrome
                0x21f1ecf4      0x1b8 drivers/mtd/nand/built-in.o
 .text.nand_write_page_raw
                0x21f1eeac       0x44 drivers/mtd/nand/built-in.o
 .text.nand_write_page_raw_syndrome
                0x21f1eef0       0xd0 drivers/mtd/nand/built-in.o
 .text.nand_write_page_swecc
                0x21f1efc0       0xac drivers/mtd/nand/built-in.o
 .text.nand_write_page_hwecc
                0x21f1f06c       0xd0 drivers/mtd/nand/built-in.o
 .text.nand_write_page_syndrome
                0x21f1f13c       0xf4 drivers/mtd/nand/built-in.o
 .text.nand_write_page
                0x21f1f230      0x148 drivers/mtd/nand/built-in.o
 .text.single_erase_cmd
                0x21f1f378       0x3c drivers/mtd/nand/built-in.o
 .text.nand_sync
                0x21f1f3b4       0x1c drivers/mtd/nand/built-in.o
 .text.nand_onfi_set_features
                0x21f1f3d0       0x5c drivers/mtd/nand/built-in.o
 .text.nand_set_defaults
                0x21f1f42c      0x1a8 drivers/mtd/nand/built-in.o
 .text.nand_get_bits_per_cell
                0x21f1f5d4       0x10 drivers/mtd/nand/built-in.o
 .text.nand_select_chip
                0x21f1f5e4       0x58 drivers/mtd/nand/built-in.o
 .text.nand_scan_tail
                0x21f1f63c      0x644 drivers/mtd/nand/built-in.o
                0x21f1f63c                nand_scan_tail
 .text.nand_write_subpage_hwecc
                0x21f1fc80      0x1a4 drivers/mtd/nand/built-in.o
 .text.nand_onfi_get_features
                0x21f1fe24       0x64 drivers/mtd/nand/built-in.o
 .text.nand_block_checkbad
                0x21f1fe88       0x8c drivers/mtd/nand/built-in.o
 .text.nand_block_isbad
                0x21f1ff14       0x1c drivers/mtd/nand/built-in.o
 .text.nand_erase_nand
                0x21f1ff30      0x298 drivers/mtd/nand/built-in.o
                0x21f1ff30                nand_erase_nand
 .text.nand_block_markbad
                0x21f201c8       0xec drivers/mtd/nand/built-in.o
 .text.nand_erase
                0x21f202b4        0x8 drivers/mtd/nand/built-in.o
 .text.nand_fill_oob
                0x21f202bc      0x128 drivers/mtd/nand/built-in.o
 .text.nand_do_write_oob
                0x21f203e4      0x1d8 drivers/mtd/nand/built-in.o
 .text.nand_default_block_markbad
                0x21f205bc       0xec drivers/mtd/nand/built-in.o
 .text.nand_do_write_ops
                0x21f206a8      0x398 drivers/mtd/nand/built-in.o
 .text.nand_write_oob
                0x21f20a40       0xc4 drivers/mtd/nand/built-in.o
 .text.nand_write
                0x21f20b04       0x74 drivers/mtd/nand/built-in.o
 .text.nand_transfer_oob
                0x21f20b78      0x114 drivers/mtd/nand/built-in.o
 .text.panic_nand_write
                0x21f20c8c       0xbc drivers/mtd/nand/built-in.o
 .text.nand_wait
                0x21f20d48       0xe0 drivers/mtd/nand/built-in.o
 .text.nand_wait_ready
                0x21f20e28       0x4c drivers/mtd/nand/built-in.o
                0x21f20e28                nand_wait_ready
 .text.nand_do_read_ops
                0x21f20e74      0x478 drivers/mtd/nand/built-in.o
 .text.nand_read_oob
                0x21f212ec      0x350 drivers/mtd/nand/built-in.o
 .text.nand_read
                0x21f2163c       0x74 drivers/mtd/nand/built-in.o
 .text.nand_command
                0x21f216b0      0x208 drivers/mtd/nand/built-in.o
 .text.nand_command_lp
                0x21f218b8      0x27c drivers/mtd/nand/built-in.o
 .text.sanitize_string
                0x21f21b34       0x38 drivers/mtd/nand/built-in.o
 .text.nand_scan_ident
                0x21f21b6c      0xabc drivers/mtd/nand/built-in.o
                0x21f21b6c                nand_scan_ident
 .text.atmel_nand_chip_init
                0x21f22628       0x9c drivers/mtd/nand/built-in.o
                0x21f22628                atmel_nand_chip_init
 .text.board_nand_init
                0x21f226c4       0x2c drivers/mtd/nand/built-in.o
                0x21f226c4                board_nand_init
 .text.at91_nand_ready
                0x21f226f0        0x8 drivers/mtd/nand/built-in.o
 .text.at91_nand_hwcontrol
                0x21f226f8       0x58 drivers/mtd/nand/built-in.o
 .text.macb_is_gem
                0x21f22750       0x1c drivers/net/built-in.o
 .text.macb_mdio_write
                0x21f2276c       0x6c drivers/net/built-in.o
 .text.macb_mdio_read
                0x21f227d8       0x74 drivers/net/built-in.o
 .text.arch_get_mdio_control
                0x21f2284c        0x4 drivers/net/built-in.o
                0x21f2284c                arch_get_mdio_control
 .text.macb_halt
                0x21f22850       0x38 drivers/net/built-in.o
 .text.macb_write_hwaddr
                0x21f22888       0x44 drivers/net/built-in.o
 .text.macb_eth_initialize
                0x21f228cc      0x1e8 drivers/net/built-in.o
                0x21f228cc                macb_eth_initialize
 .text.reclaim_rx_buffers
                0x21f22ab4       0x84 drivers/net/built-in.o
 .text.macb_recv
                0x21f22b38      0x108 drivers/net/built-in.o
 .text.macb_send
                0x21f22c40      0x100 drivers/net/built-in.o
 .text.macb_init
                0x21f22d40      0x3d8 drivers/net/built-in.o
 .text.serial_null
                0x21f23118        0x4 drivers/serial/built-in.o
                0x21f23118                jz_serial_initialize
                0x21f23118                bfin_serial_initialize
                0x21f23118                p3mx_serial_initialize
                0x21f23118                leon2_serial_initialize
                0x21f23118                leon3_serial_initialize
                0x21f23118                stm32_serial_initialize
                0x21f23118                amirix_serial_initialize
                0x21f23118                marvell_serial_initialize
                0x21f23118                cpci750_serial_initialize
                0x21f23118                ns16550_serial_initialize
                0x21f23118                asc_serial_initialize
                0x21f23118                altera_serial_initialize
                0x21f23118                oc_serial_initialize
                0x21f23118                sh_serial_initialize
                0x21f23118                mxs_auart_initialize
                0x21f23118                arm_dcc_initialize
                0x21f23118                bmw_serial_initialize
                0x21f23118                arc_serial_initialize
                0x21f23118                mcf_serial_initialize
                0x21f23118                lh7a40x_serial_initialize
                0x21f23118                evb64260_serial_initialize
                0x21f23118                lpc32xx_serial_initialize
                0x21f23118                max3100_serial_initialize
                0x21f23118                mpc85xx_serial_initialize
                0x21f23118                imx_serial_initialize
                0x21f23118                bfin_jtag_initialize
                0x21f23118                cogent_serial_initialize
                0x21f23118                clps7111_serial_initialize
                0x21f23118                ml2_serial_initialize
                0x21f23118                sandbox_serial_initialize
                0x21f23118                s3c24xx_serial_initialize
                0x21f23118                sconsole_serial_initialize
                0x21f23118                uartlite_serial_initialize
                0x21f23118                au1x00_serial_initialize
                0x21f23118                pxa_serial_initialize
                0x21f23118                pl01x_serial_initialize
                0x21f23118                altera_jtag_serial_initialize
                0x21f23118                mpc512x_serial_initialize
                0x21f23118                s5p_serial_initialize
                0x21f23118                zynq_serial_initialize
                0x21f23118                sa1100_serial_initialize
                0x21f23118                mpc8260_scc_serial_initialize
                0x21f23118                mxc_serial_initialize
                0x21f23118                iop480_serial_initialize
                0x21f23118                mpc8xx_serial_initialize
                0x21f23118                mpc8260_smc_serial_initialize
                0x21f23118                mpc5xx_serial_initialize
 .text.serial_register
                0x21f2311c       0x18 drivers/serial/built-in.o
                0x21f2311c                serial_register
 .text.serial_stub_start
                0x21f23134       0x14 drivers/serial/built-in.o
 .text.serial_stub_stop
                0x21f23148       0x14 drivers/serial/built-in.o
 .text.serial_stub_putc
                0x21f2315c       0x18 drivers/serial/built-in.o
 .text.serial_stub_puts
                0x21f23174       0x18 drivers/serial/built-in.o
 .text.serial_stub_getc
                0x21f2318c       0x14 drivers/serial/built-in.o
                0x21f2318c                serial_stub_getc
 .text.serial_stub_tstc
                0x21f231a0       0x14 drivers/serial/built-in.o
                0x21f231a0                serial_stub_tstc
 .text.get_current
                0x21f231b4       0x3c drivers/serial/built-in.o
 .text.default_serial_puts
                0x21f231f0       0x34 drivers/serial/built-in.o
                0x21f231f0                default_serial_puts
 .text.serial_puts
                0x21f23224       0x1c drivers/serial/built-in.o
                0x21f23224                serial_puts
 .text.serial_putc
                0x21f23240       0x1c drivers/serial/built-in.o
                0x21f23240                serial_putc
 .text.serial_tstc
                0x21f2325c       0x14 drivers/serial/built-in.o
                0x21f2325c                serial_tstc
 .text.serial_getc
                0x21f23270       0x14 drivers/serial/built-in.o
                0x21f23270                serial_getc
 .text.serial_setbrg
                0x21f23284       0x14 drivers/serial/built-in.o
                0x21f23284                serial_setbrg
 .text.on_baudrate
                0x21f23298       0xf0 drivers/serial/built-in.o
 .text.serial_init
                0x21f23388       0x20 drivers/serial/built-in.o
                0x21f23388                serial_init
 .text.serial_assign
                0x21f233a8       0x50 drivers/serial/built-in.o
                0x21f233a8                serial_assign
 .text.serial_initialize
                0x21f233f8       0xd0 drivers/serial/built-in.o
                0x21f233f8                serial_initialize
 .text.serial_stdio_init
                0x21f234c8       0xa8 drivers/serial/built-in.o
                0x21f234c8                serial_stdio_init
 .text.atmel_serial_setbrg
                0x21f23570       0x34 drivers/serial/built-in.o
 .text.atmel_serial_getc
                0x21f235a4       0x24 drivers/serial/built-in.o
 .text.atmel_serial_tstc
                0x21f235c8       0x14 drivers/serial/built-in.o
 .text.default_serial_console
                0x21f235dc        0xc drivers/serial/built-in.o
                0x21f235dc                default_serial_console
 .text.atmel_serial_putc
                0x21f235e8       0x3c drivers/serial/built-in.o
 .text.atmel_serial_init
                0x21f23624       0x5c drivers/serial/built-in.o
 .text.atmel_serial_initialize
                0x21f23680        0xc drivers/serial/built-in.o
                0x21f23680                atmel_serial_initialize
 .text.AT91F_SpiEnable
                0x21f2368c       0x58 drivers/spi/built-in.o
                0x21f2368c                AT91F_SpiEnable
 .text.AT91F_SpiWrite
                0x21f236e4       0xf0 drivers/spi/built-in.o
                0x21f236e4                AT91F_SpiWrite
 .text.AT91F_SpiInit
                0x21f237d4       0x70 drivers/spi/built-in.o
                0x21f237d4                AT91F_SpiInit
 .text.ep_rev   0x21f23844       0x38 drivers/usb/host/built-in.o
 .text.td_fill  0x21f2387c       0xa0 drivers/usb/host/built-in.o
 .text.td_submit_job
                0x21f2391c      0x25c drivers/usb/host/built-in.o
 .text.hc_reset
                0x21f23b78       0xb4 drivers/usb/host/built-in.o
 .text.usb_lowlevel_stop
                0x21f23c2c       0x3c drivers/usb/host/built-in.o
                0x21f23c2c                usb_lowlevel_stop
 .text.hc_release_ohci
                0x21f23c68       0x10 drivers/usb/host/built-in.o
 .text.usb_lowlevel_init
                0x21f23c78      0x18c drivers/usb/host/built-in.o
                0x21f23c78                usb_lowlevel_init
 .text.urb_free_priv
                0x21f23e04       0x44 drivers/usb/host/built-in.o
 .text.sohci_submit_job
                0x21f23e48      0x590 drivers/usb/host/built-in.o
                0x21f23e48                sohci_submit_job
 .text.submit_common_msg
                0x21f243d8      0x698 drivers/usb/host/built-in.o
                0x21f243d8                submit_common_msg
 .text.submit_int_msg
                0x21f24a70       0x1c drivers/usb/host/built-in.o
                0x21f24a70                submit_int_msg
 .text.submit_control_msg
                0x21f24a8c      0x674 drivers/usb/host/built-in.o
                0x21f24a8c                submit_control_msg
 .text.submit_bulk_msg
                0x21f25100       0x18 drivers/usb/host/built-in.o
                0x21f25100                submit_bulk_msg
 .text.usb_cpu_init
                0x21f25118       0x4c drivers/usb/host/built-in.o
                0x21f25118                usb_cpu_init
 .text.usb_cpu_stop
                0x21f25164       0x44 drivers/usb/host/built-in.o
                0x21f25164                usb_cpu_stop
 .text.usb_cpu_init_fail
                0x21f251a8        0x4 drivers/usb/host/built-in.o
                0x21f251a8                usb_cpu_init_fail
 .text.fs_ls_unsupported
                0x21f251ac        0x8 fs/built-in.o
 .text.fs_exists_unsupported
                0x21f251b4        0x8 fs/built-in.o
 .text.fs_size_unsupported
                0x21f251bc        0x8 fs/built-in.o
 .text.fs_read_unsupported
                0x21f251c4        0x8 fs/built-in.o
 .text.fs_write_unsupported
                0x21f251cc        0x8 fs/built-in.o
 .text.fs_close_unsupported
                0x21f251d4        0x4 fs/built-in.o
 .text.fs_uuid_unsupported
                0x21f251d8        0x8 fs/built-in.o
 .text.fs_get_info
                0x21f251e0       0x20 fs/built-in.o
 .text.fs_close
                0x21f25200       0x28 fs/built-in.o
 .text.fs_ls    0x21f25228       0x3c fs/built-in.o
                0x21f25228                fs_ls
 .text.fs_exists
                0x21f25264       0x34 fs/built-in.o
                0x21f25264                fs_exists
 .text.fs_size  0x21f25298       0x3c fs/built-in.o
                0x21f25298                fs_size
 .text.fs_probe_unsupported
                0x21f252d4       0x18 fs/built-in.o
 .text.fs_read  0x21f252ec       0xac fs/built-in.o
                0x21f252ec                fs_read
 .text.fs_set_blk_dev
                0x21f25398       0xb0 fs/built-in.o
                0x21f25398                fs_set_blk_dev
 .text.file_exists
                0x21f25448       0x2c fs/built-in.o
                0x21f25448                file_exists
 .text.do_ls    0x21f25474       0x68 fs/built-in.o
                0x21f25474                do_ls
 .text.do_load  0x21f254dc      0x244 fs/built-in.o
                0x21f254dc                do_load
 .text.do_size  0x21f25720       0x5c fs/built-in.o
                0x21f25720                do_size
 .text.downcase
                0x21f2577c       0x38 fs/built-in.o
 .text.disk_read
                0x21f257b4       0x5c fs/built-in.o
 .text.dirdelim
                0x21f25810       0x34 fs/built-in.o
 .text.get_fatent
                0x21f25844      0x190 fs/built-in.o
 .text.slot2str
                0x21f259d4       0xd0 fs/built-in.o
 .text.mkcksum  0x21f25aa4       0x58 fs/built-in.o
 .text.fat_close
                0x21f25afc        0x4 fs/built-in.o
                0x21f25afc                fat_close
 .text.get_name
                0x21f25b00       0xbc fs/built-in.o
 .text.read_bootsectandvi
                0x21f25bbc      0x12c fs/built-in.o
 .text.file_fat_detectfs
                0x21f25ce8      0x154 fs/built-in.o
                0x21f25ce8                file_fat_detectfs
 .text.get_cluster
                0x21f25e3c      0x178 fs/built-in.o
 .text.get_vfatname
                0x21f25fb4      0x1cc fs/built-in.o
 .text.do_fat_read_at
                0x21f26180      0xd14 fs/built-in.o
                0x21f26180                do_fat_read_at
 .text.file_fat_read_at
                0x21f26e94       0x60 fs/built-in.o
                0x21f26e94                file_fat_read_at
 .text.fat_read_file
                0x21f26ef4       0x48 fs/built-in.o
                0x21f26ef4                fat_read_file
 .text.fat_size
                0x21f26f3c       0x40 fs/built-in.o
                0x21f26f3c                fat_size
 .text.fat_exists
                0x21f26f7c       0x4c fs/built-in.o
                0x21f26f7c                fat_exists
 .text.do_fat_read
                0x21f26fc8       0x3c fs/built-in.o
                0x21f26fc8                do_fat_read
 .text.file_fat_ls
                0x21f27004       0x2c fs/built-in.o
                0x21f27004                file_fat_ls
 .text.fat_set_blk_dev
                0x21f27030       0xd8 fs/built-in.o
                0x21f27030                fat_set_blk_dev
 .text.inflate_fast
                0x21f27108      0x584 lib/built-in.o
                0x21f27108                inflate_fast
 .text.inflate_table
                0x21f2768c      0x594 lib/built-in.o
                0x21f2768c                inflate_table
 .text.inflateReset
                0x21f27c20       0x7c lib/built-in.o
                0x21f27c20                inflateReset
 .text.inflateInit2_
                0x21f27c9c      0x108 lib/built-in.o
                0x21f27c9c                inflateInit2_
 .text.inflateEnd
                0x21f27da4       0x68 lib/built-in.o
                0x21f27da4                inflateEnd
 .text.adler32  0x21f27e0c      0x33c lib/built-in.o
                0x21f27e0c                adler32
 .text.zcfree   0x21f28148        0x8 lib/built-in.o
                0x21f28148                zcfree
 .text.zcalloc  0x21f28150        0x8 lib/built-in.o
                0x21f28150                zcalloc
 .text.inflate  0x21f28158     0x179c lib/built-in.o
                0x21f28158                inflate
 .text.fdt_offset_ptr
                0x21f298f4       0x94 lib/built-in.o
                0x21f298f4                fdt_offset_ptr
 .text.fdt_next_tag
                0x21f29988      0x120 lib/built-in.o
                0x21f29988                fdt_next_tag
 .text._fdt_check_prop_offset
                0x21f29aa8       0x34 lib/built-in.o
                0x21f29aa8                _fdt_check_prop_offset
 .text._fdt_check_node_offset
                0x21f29adc       0x34 lib/built-in.o
                0x21f29adc                _fdt_check_node_offset
 .text.fdt_next_node
                0x21f29b10       0xb8 lib/built-in.o
                0x21f29b10                fdt_next_node
 .text.fdt_check_header
                0x21f29bc8       0xc4 lib/built-in.o
                0x21f29bc8                fdt_check_header
 .text.fdt_move
                0x21f29c8c       0x58 lib/built-in.o
                0x21f29c8c                fdt_move
 .text._fdt_find_string
                0x21f29ce4       0x5c lib/built-in.o
                0x21f29ce4                _fdt_find_string
 .text.fdt_supernode_atdepth_offset
                0x21f29d40       0xb8 lib/built-in.o
                0x21f29d40                fdt_supernode_atdepth_offset
 .text.fdt_node_depth
                0x21f29df8       0x24 lib/built-in.o
                0x21f29df8                fdt_node_depth
 .text.fdt_num_mem_rsv
                0x21f29e1c       0x88 lib/built-in.o
                0x21f29e1c                fdt_num_mem_rsv
 .text.fdt_get_mem_rsv
                0x21f29ea4       0xe4 lib/built-in.o
                0x21f29ea4                fdt_get_mem_rsv
 .text.fdt_string
                0x21f29f88       0x2c lib/built-in.o
                0x21f29f88                fdt_string
 .text.fdt_get_property_by_offset
                0x21f29fb4       0x80 lib/built-in.o
                0x21f29fb4                fdt_get_property_by_offset
 .text._nextprop
                0x21f2a034       0x5c lib/built-in.o
 .text.fdt_next_property_offset
                0x21f2a090       0x20 lib/built-in.o
                0x21f2a090                fdt_next_property_offset
 .text.fdt_first_property_offset
                0x21f2a0b0       0x20 lib/built-in.o
                0x21f2a0b0                fdt_first_property_offset
 .text.fdt_get_property_namelen
                0x21f2a0d0       0xc0 lib/built-in.o
                0x21f2a0d0                fdt_get_property_namelen
 .text.fdt_getprop_namelen
                0x21f2a190       0x1c lib/built-in.o
                0x21f2a190                fdt_getprop_namelen
 .text.fdt_getprop
                0x21f2a1ac       0x38 lib/built-in.o
                0x21f2a1ac                fdt_getprop
 .text.fdt_get_property
                0x21f2a1e4       0x38 lib/built-in.o
                0x21f2a1e4                fdt_get_property
 .text.fdt_get_name
                0x21f2a21c       0x84 lib/built-in.o
                0x21f2a21c                fdt_get_name
 .text.fdt_subnode_offset_namelen
                0x21f2a2a0       0xc4 lib/built-in.o
                0x21f2a2a0                fdt_subnode_offset_namelen
 .text.fdt_path_offset
                0x21f2a364       0xe4 lib/built-in.o
                0x21f2a364                fdt_path_offset
 .text.fdt_get_alias_namelen
                0x21f2a448       0x44 lib/built-in.o
                0x21f2a448                fdt_get_alias_namelen
 .text.fdt_subnode_offset
                0x21f2a48c       0x30 lib/built-in.o
                0x21f2a48c                fdt_subnode_offset
 .text._fdt_blocks_misordered
                0x21f2a4bc       0xd8 lib/built-in.o
 .text._fdt_rw_check_header
                0x21f2a594       0xa0 lib/built-in.o
 .text._fdt_packblocks
                0x21f2a634      0x148 lib/built-in.o
 .text._fdt_splice
                0x21f2a77c       0xbc lib/built-in.o
 .text._fdt_splice_struct
                0x21f2a838       0xa0 lib/built-in.o
 .text._fdt_splice_mem_rsv
                0x21f2a8d8       0xac lib/built-in.o
 .text.fdt_del_mem_rsv
                0x21f2a984       0x6c lib/built-in.o
                0x21f2a984                fdt_del_mem_rsv
 .text.fdt_add_mem_rsv
                0x21f2a9f0      0x110 lib/built-in.o
                0x21f2a9f0                fdt_add_mem_rsv
 .text.fdt_open_into
                0x21f2ab00      0x240 lib/built-in.o
                0x21f2ab00                fdt_open_into
 .text.fdt_del_node
                0x21f2ad40       0x70 lib/built-in.o
                0x21f2ad40                fdt_del_node
 .text.fdt_add_subnode_namelen
                0x21f2adb0      0x10c lib/built-in.o
                0x21f2adb0                fdt_add_subnode_namelen
 .text.fdt_add_subnode
                0x21f2aebc       0x30 lib/built-in.o
                0x21f2aebc                fdt_add_subnode
 .text.fdt_delprop
                0x21f2aeec       0x64 lib/built-in.o
                0x21f2aeec                fdt_delprop
 .text._fdt_add_property
                0x21f2af50      0x1e4 lib/built-in.o
 .text.fdt_setprop
                0x21f2b134       0xe8 lib/built-in.o
                0x21f2b134                fdt_setprop
 .text.fdt_strerror
                0x21f2b21c       0x4c lib/built-in.o
                0x21f2b21c                fdt_strerror
 .text._fdt_node_end_offset
                0x21f2b268       0x44 lib/built-in.o
                0x21f2b268                _fdt_node_end_offset
 .text.fdt_size_cells
                0x21f2b2ac       0x58 lib/built-in.o
                0x21f2b2ac                fdt_size_cells
 .text.fdt_address_cells
                0x21f2b304       0x5c lib/built-in.o
                0x21f2b304                fdt_address_cells
 .text.cyg_crc16
                0x21f2b360       0x48 lib/built-in.o
                0x21f2b360                cyg_crc16
 .text.zunzip   0x21f2b3a8      0x128 lib/built-in.o
                0x21f2b3a8                zunzip
 .text.gunzip   0x21f2b4d0       0xc8 lib/built-in.o
                0x21f2b4d0                gunzip
 .text.gzalloc  0x21f2b598       0x10 lib/built-in.o
                0x21f2b598                gzalloc
 .text.gzfree   0x21f2b5a8        0x8 lib/built-in.o
                0x21f2b5a8                gzfree
 .text.initcall_run_list
                0x21f2b5b0       0x6c lib/built-in.o
                0x21f2b5b0                initcall_run_list
 .text.lmb_addrs_adjacent
                0x21f2b61c       0x24 lib/built-in.o
 .text.lmb_remove_region
                0x21f2b640       0x3c lib/built-in.o
 .text.lmb_init
                0x21f2b67c       0x28 lib/built-in.o
                0x21f2b67c                lmb_init
 .text.lmb_add_region
                0x21f2b6a4      0x1cc lib/built-in.o
 .text.lmb_add  0x21f2b870        0x4 lib/built-in.o
                0x21f2b870                lmb_add
 .text.lmb_free
                0x21f2b874      0x100 lib/built-in.o
                0x21f2b874                lmb_free
 .text.lmb_reserve
                0x21f2b974        0x8 lib/built-in.o
                0x21f2b974                lmb_reserve
 .text.lmb_align_down
                0x21f2b97c        0xc lib/built-in.o
 .text.__lmb_alloc_base
                0x21f2b988      0x144 lib/built-in.o
                0x21f2b988                __lmb_alloc_base
 .text.board_lmb_reserve
                0x21f2bacc        0x4 lib/built-in.o
                0x21f2bacc                board_lmb_reserve
 .text.lmb_alloc_base
                0x21f2bad0       0x34 lib/built-in.o
                0x21f2bad0                lmb_alloc_base
 .text.lmb_alloc
                0x21f2bb04        0x8 lib/built-in.o
                0x21f2bb04                lmb_alloc
 .text.string_to_ip
                0x21f2bb0c       0x7c lib/built-in.o
                0x21f2bb0c                string_to_ip
 .text.qsort    0x21f2bb88      0x114 lib/built-in.o
                0x21f2bb88                qsort
 .text.strcmp_compar
                0x21f2bc9c        0xc lib/built-in.o
                0x21f2bc9c                strcmp_compar
 .text.strmhz   0x21f2bca8       0x70 lib/built-in.o
                0x21f2bca8                strmhz
 .text.hwalk_r  0x21f2bd18       0x58 lib/built-in.o
                0x21f2bd18                hwalk_r
 .text._hdelete
                0x21f2bd70       0x50 lib/built-in.o
 .text.hdestroy_r
                0x21f2bdc0       0x74 lib/built-in.o
                0x21f2bdc0                hdestroy_r
 .text.drop_var_from_set
                0x21f2be34       0x60 lib/built-in.o
 .text.cmpkey   0x21f2be94       0x14 lib/built-in.o
 .text.hcreate_r
                0x21f2bea8       0xa8 lib/built-in.o
                0x21f2bea8                hcreate_r
 .text.match_string
                0x21f2bf50       0x64 lib/built-in.o
 .text.hexport_r
                0x21f2bfb4      0x348 lib/built-in.o
                0x21f2bfb4                hexport_r
 .text.hsearch_r
                0x21f2c2fc      0x52c lib/built-in.o
                0x21f2c2fc                hsearch_r
 .text.hdelete_r
                0x21f2c828       0xf0 lib/built-in.o
                0x21f2c828                hdelete_r
 .text.himport_r
                0x21f2c918      0x3c0 lib/built-in.o
                0x21f2c918                himport_r
 .text.hmatch_r
                0x21f2ccd8       0xa0 lib/built-in.o
                0x21f2ccd8                hmatch_r
 .text.print_size
                0x21f2cd78      0x14c lib/built-in.o
                0x21f2cd78                print_size
 .text.display_options
                0x21f2cec4       0x20 lib/built-in.o
                0x21f2cec4                display_options
 .text.print_buffer
                0x21f2cee4      0x1b4 lib/built-in.o
                0x21f2cee4                print_buffer
 .text.crc32_no_comp
                0x21f2d098       0xf8 lib/built-in.o
                0x21f2d098                crc32_no_comp
 .text.crc32    0x21f2d190       0x14 lib/built-in.o
                0x21f2d190                crc32
 .text.crc32_wd
                0x21f2d1a4        0x4 lib/built-in.o
                0x21f2d1a4                crc32_wd
 .text.__div64_32
                0x21f2d1a8       0xf4 lib/built-in.o
                0x21f2d1a8                __div64_32
 .text.hang     0x21f2d29c       0x18 lib/built-in.o
                0x21f2d29c                hang
 .text.kmalloc  0x21f2d2b4        0xc lib/built-in.o
                0x21f2d2b4                kmalloc
 .text.kzalloc  0x21f2d2c0       0x24 lib/built-in.o
                0x21f2d2c0                kzalloc
 .text.skip_spaces
                0x21f2d2e4       0x24 lib/built-in.o
                0x21f2d2e4                skip_spaces
 .text.strim    0x21f2d308       0x58 lib/built-in.o
                0x21f2d308                strim
 .text.strcpy   0x21f2d360       0x1c lib/built-in.o
                0x21f2d360                strcpy
 .text.strncpy  0x21f2d37c       0x28 lib/built-in.o
                0x21f2d37c                strncpy
 .text.strcat   0x21f2d3a4       0x34 lib/built-in.o
                0x21f2d3a4                strcat
 .text.strncat  0x21f2d3d8       0x64 lib/built-in.o
                0x21f2d3d8                strncat
 .text.strcmp   0x21f2d43c       0x38 lib/built-in.o
                0x21f2d43c                strcmp
 .text.strncmp  0x21f2d474       0x50 lib/built-in.o
                0x21f2d474                strncmp
 .text.strchr   0x21f2d4c4       0x2c lib/built-in.o
                0x21f2d4c4                strchr
 .text.strlen   0x21f2d4f0       0x20 lib/built-in.o
                0x21f2d4f0                strlen
 .text.strnlen  0x21f2d510       0x28 lib/built-in.o
                0x21f2d510                strnlen
 .text.strpbrk  0x21f2d538       0x40 lib/built-in.o
                0x21f2d538                strpbrk
 .text.memset   0x21f2d578       0x7c lib/built-in.o
                0x21f2d578                memset
 .text.memcpy   0x21f2d5f4       0x84 lib/built-in.o
                0x21f2d5f4                memcpy
 .text.memmove  0x21f2d678       0x64 lib/built-in.o
                0x21f2d678                memmove
 .text.memcmp   0x21f2d6dc       0x40 lib/built-in.o
                0x21f2d6dc                memcmp
 .text.strstr   0x21f2d71c       0x64 lib/built-in.o
                0x21f2d71c                strstr
 .text.memchr   0x21f2d780       0x30 lib/built-in.o
                0x21f2d780                memchr
 .text.strdup   0x21f2d7b0       0x34 lib/built-in.o
                0x21f2d7b0                strdup
 .text.timer_read_counter
                0x21f2d7e4        0xc lib/built-in.o
                0x21f2d7e4                timer_read_counter
 .text.get_ticks
                0x21f2d7f0       0x38 lib/built-in.o
                0x21f2d7f0                get_ticks
 .text.__udelay
                0x21f2d828       0x90 lib/built-in.o
                0x21f2d828                __udelay
 .text.udelay   0x21f2d8b8       0x2c lib/built-in.o
                0x21f2d8b8                udelay
 .text.mdelay   0x21f2d8e4       0x24 lib/built-in.o
                0x21f2d8e4                mdelay
 .text.tick_to_time
                0x21f2d908       0x58 lib/built-in.o
 .text.get_timer
                0x21f2d960       0x18 lib/built-in.o
                0x21f2d960                get_timer
 .text.__toupper
                0x21f2d978       0x1c lib/built-in.o
 .text.simple_strtoul
                0x21f2d994       0xb8 lib/built-in.o
                0x21f2d994                simple_strtoul
 .text.simple_strtol
                0x21f2da4c       0x28 lib/built-in.o
                0x21f2da4c                simple_strtol
 .text.ustrtoul
                0x21f2da74       0x74 lib/built-in.o
                0x21f2da74                ustrtoul
 .text.simple_strtoull
                0x21f2dae8       0xdc lib/built-in.o
                0x21f2dae8                simple_strtoull
 .text.ustrtoull
                0x21f2dbc4       0x98 lib/built-in.o
                0x21f2dbc4                ustrtoull
 .text.skip_atoi
                0x21f2dc5c       0x38 lib/built-in.o
 .text.put_dec_trunc
                0x21f2dc94       0xdc lib/built-in.o
 .text.simple_itoa
                0x21f2dd70       0x58 lib/built-in.o
                0x21f2dd70                simple_itoa
 .text.panic_finish
                0x21f2ddc8       0x2c lib/built-in.o
 .text.panic    0x21f2ddf4       0x20 lib/built-in.o
                0x21f2ddf4                panic
 .text.string   0x21f2de14       0xb0 lib/built-in.o
 .text.put_dec  0x21f2dec4      0x130 lib/built-in.o
 .text.number   0x21f2dff4      0x264 lib/built-in.o
 .text.vsprintf
                0x21f2e258      0x6e4 lib/built-in.o
                0x21f2e258                vsprintf
 .text.sprintf  0x21f2e93c       0x28 lib/built-in.o
                0x21f2e93c                sprintf
 .text.strict_strtoul
                0x21f2e964       0x7c lib/built-in.o
                0x21f2e964                strict_strtoul
 .text.compute_ip_checksum
                0x21f2e9e0       0x74 net/built-in.o
                0x21f2e9e0                compute_ip_checksum
 .text.ip_checksum_ok
                0x21f2ea54       0x20 net/built-in.o
                0x21f2ea54                ip_checksum_ok
 .text.arp_init
                0x21f2ea74       0x50 net/built-in.o
                0x21f2ea74                arp_init
 .text.arp_receive
                0x21f2eac4      0x228 net/built-in.o
                0x21f2eac4                arp_receive
 .text.arp_raw_request
                0x21f2ecec       0xc8 net/built-in.o
                0x21f2ecec                arp_raw_request
 .text.arp_request
                0x21f2edb4       0x8c net/built-in.o
                0x21f2edb4                arp_request
 .text.arp_timeout_check
                0x21f2ee40       0x84 net/built-in.o
                0x21f2ee40                arp_timeout_check
 .text.truncate_sz
                0x21f2eec4       0x34 net/built-in.o
 .text.bootp_reset
                0x21f2eef8       0x48 net/built-in.o
                0x21f2eef8                bootp_reset
 .text.dhcp_process_options
                0x21f2ef40      0x1f4 net/built-in.o
 .text.dhcp_extended
                0x21f2f134      0x230 net/built-in.o
 .text.bootp_request
                0x21f2f364      0x26c net/built-in.o
                0x21f2f364                bootp_request
 .text.dhcp_request
                0x21f2f5d0        0x4 net/built-in.o
                0x21f2f5d0                dhcp_request
 .text.dhcp_handler
                0x21f2f5d4      0x3bc net/built-in.o
 .text.bootp_timeout_handler
                0x21f2f990       0x74 net/built-in.o
 .text.__def_eth_init
                0x21f2fa04        0x8 net/built-in.o
                0x21f2fa04                cpu_eth_init
 .text.eth_set_dev
                0x21f2fa0c       0x10 net/built-in.o
 .text.eth_get_dev_index
                0x21f2fa1c       0x1c net/built-in.o
                0x21f2fa1c                eth_get_dev_index
 .text.eth_halt
                0x21f2fa38       0x34 net/built-in.o
                0x21f2fa38                eth_halt
 .text.eth_send
                0x21f2fa6c       0x34 net/built-in.o
                0x21f2fa6c                eth_send
 .text.eth_rx   0x21f2faa0       0x2c net/built-in.o
                0x21f2faa0                eth_rx
 .text.eth_get_name
                0x21f2facc       0x20 net/built-in.o
                0x21f2facc                eth_get_name
 .text.eth_current_changed
                0x21f2faec       0x68 net/built-in.o
 .text.eth_try_another
                0x21f2fb54       0x88 net/built-in.o
                0x21f2fb54                eth_try_another
 .text.eth_register
                0x21f2fbdc       0x80 net/built-in.o
                0x21f2fbdc                eth_register
 .text.eth_setenv_enetaddr
                0x21f2fc5c       0x38 net/built-in.o
                0x21f2fc5c                eth_setenv_enetaddr
 .text.eth_get_dev_by_name
                0x21f2fc94       0x84 net/built-in.o
                0x21f2fc94                eth_get_dev_by_name
 .text.eth_set_current
                0x21f2fd18       0x98 net/built-in.o
                0x21f2fd18                eth_set_current
 .text.eth_parse_enetaddr
                0x21f2fdb0       0x5c net/built-in.o
                0x21f2fdb0                eth_parse_enetaddr
 .text.eth_getenv_enetaddr
                0x21f2fe0c       0x58 net/built-in.o
                0x21f2fe0c                eth_getenv_enetaddr
 .text.eth_getenv_enetaddr_by_index
                0x21f2fe64       0x50 net/built-in.o
                0x21f2fe64                eth_getenv_enetaddr_by_index
 .text.eth_init
                0x21f2feb4       0xcc net/built-in.o
                0x21f2feb4                eth_init
 .text.eth_write_hwaddr
                0x21f2ff80      0x27c net/built-in.o
                0x21f2ff80                eth_write_hwaddr
 .text.eth_initialize
                0x21f301fc      0x1bc net/built-in.o
                0x21f301fc                eth_initialize
 .text.start_again_timeout_handler
                0x21f303b8       0x14 net/built-in.o
 .text.dummy_handler
                0x21f303cc        0x4 net/built-in.o
 .text.net_set_udp_handler
                0x21f303d0       0x20 net/built-in.o
                0x21f303d0                net_set_udp_handler
 .text.net_get_arp_handler
                0x21f303f0       0x10 net/built-in.o
                0x21f303f0                net_get_arp_handler
 .text.net_set_arp_handler
                0x21f30400       0x20 net/built-in.o
                0x21f30400                net_set_arp_handler
 .text.copy_filename
                0x21f30420       0x58 net/built-in.o
                0x21f30420                copy_filename
 .text.on_bootfile
                0x21f30478       0x2c net/built-in.o
 .text.string_to_vlan
                0x21f304a4       0x54 net/built-in.o
                0x21f304a4                string_to_vlan
 .text.getenv_vlan
                0x21f304f8       0x10 net/built-in.o
                0x21f304f8                getenv_vlan
 .text.net_eth_hdr_size
                0x21f30508       0x44 net/built-in.o
                0x21f30508                net_eth_hdr_size
 .text.ip_to_string
                0x21f3054c       0x50 net/built-in.o
                0x21f3054c                ip_to_string
 .text.net_set_timeout_handler
                0x21f3059c       0x50 net/built-in.o
                0x21f3059c                net_set_timeout_handler
 .text.net_clear_handlers
                0x21f305ec       0x24 net/built-in.o
 .text.net_cleanup_loop
                0x21f30610        0x4 net/built-in.o
 .text.net_set_ip_header
                0x21f30614       0x88 net/built-in.o
                0x21f30614                net_set_ip_header
 .text.net_set_udp_header
                0x21f3069c       0xa4 net/built-in.o
                0x21f3069c                net_set_udp_header
 .text.net_update_ether
                0x21f30740       0x90 net/built-in.o
                0x21f30740                net_update_ether
 .text.net_set_ether
                0x21f307d0       0xa4 net/built-in.o
                0x21f307d0                net_set_ether
 .text.net_process_received_packet
                0x21f30874      0x2f0 net/built-in.o
                0x21f30874                net_process_received_packet
 .text.net_send_udp_packet
                0x21f30b64      0x104 net/built-in.o
                0x21f30b64                net_send_udp_packet
 .text.net_start_again
                0x21f30c68      0x144 net/built-in.o
                0x21f30c68                net_start_again
 .text.net_init_loop
                0x21f30dac       0xf0 net/built-in.o
 .text.net_init
                0x21f30e9c       0x68 net/built-in.o
                0x21f30e9c                net_init
 .text.net_loop
                0x21f30f04      0x368 net/built-in.o
                0x21f30f04                net_loop
 .text.net_auto_load
                0x21f3126c       0x64 net/built-in.o
                0x21f3126c                net_auto_load
 .text.basename
                0x21f312d0       0x3c net/built-in.o
 .text.dirname  0x21f3130c       0x1c net/built-in.o
 .text.rpc_add_credentials
                0x21f31328       0xf8 net/built-in.o
 .text.rpc_lookup_reply
                0x21f31420       0xec net/built-in.o
 .text.nfs_mount_reply
                0x21f3150c       0xc4 net/built-in.o
 .text.nfs_umountall_reply
                0x21f315d0       0xa8 net/built-in.o
 .text.nfs_lookup_reply
                0x21f31678       0xb4 net/built-in.o
 .text.rpc_req  0x21f3172c      0x13c net/built-in.o
 .text.rpc_lookup_req
                0x21f31868       0x80 net/built-in.o
 .text.nfs_mount_req
                0x21f318e8       0xa0 net/built-in.o
 .text.nfs_umountall_req
                0x21f31988       0x60 net/built-in.o
 .text.nfs_lookup_req
                0x21f319e8       0xb4 net/built-in.o
 .text.nfs_read_req
                0x21f31a9c       0xa0 net/built-in.o
 .text.nfs_readlink_req
                0x21f31b3c       0x58 net/built-in.o
 .text.nfs_send
                0x21f31b94       0xa0 net/built-in.o
 .text.nfs_start
                0x21f31c34      0x260 net/built-in.o
                0x21f31c34                nfs_start
 .text.nfs_readlink_reply
                0x21f31e94      0x128 net/built-in.o
 .text.nfs_read_reply
                0x21f31fbc      0x184 net/built-in.o
 .text.nfs_handler
                0x21f32140      0x234 net/built-in.o
 .text.nfs_timeout_handler
                0x21f32374       0x64 net/built-in.o
 .text.ping_receive
                0x21f323d8       0xe0 net/built-in.o
                0x21f323d8                ping_receive
 .text.ping_start
                0x21f324b8      0x124 net/built-in.o
                0x21f324b8                ping_start
 .text.ping_timeout_handler
                0x21f325dc       0x1c net/built-in.o
 .text.tftp_send
                0x21f325f8      0x1c8 net/built-in.o
 .text.tftp_start
                0x21f327c0      0x348 net/built-in.o
                0x21f327c0                tftp_start
 .text.tftp_timeout_handler
                0x21f32b08       0x88 net/built-in.o
 .text.tftp_handler
                0x21f32b90      0x3d4 net/built-in.o
 .text.raise    0x21f32f64       0x1c arch/arm/lib/eabi_compat.o
                0x21f32f64                raise
 .text          0x21f32f80      0x20c /home/newfriday/cross_compile/AT91BootStrap/bin/../lib/gcc/arm-none-linux-gnueabi/4.3.3/libgcc.a(_udivsi3.o)
                0x21f32f80                __udivsi3
                0x21f32f80                __aeabi_uidiv
                0x21f3316c                __aeabi_uidivmod
 .text          0x21f3318c      0x240 /home/newfriday/cross_compile/AT91BootStrap/bin/../lib/gcc/arm-none-linux-gnueabi/4.3.3/libgcc.a(_divsi3.o)
                0x21f3318c                __aeabi_idiv
                0x21f3318c                __divsi3
                0x21f333ac                __aeabi_idivmod
 .text          0x21f333cc       0x1c /home/newfriday/cross_compile/AT91BootStrap/bin/../lib/gcc/arm-none-linux-gnueabi/4.3.3/libgcc.a(_lshrdi3.o)
                0x21f333cc                __aeabi_llsr
                0x21f333cc                __lshrdi3
 .text          0x21f333e8       0x1c /home/newfriday/cross_compile/AT91BootStrap/bin/../lib/gcc/arm-none-linux-gnueabi/4.3.3/libgcc.a(_ashrdi3.o)
                0x21f333e8                __ashrdi3
                0x21f333e8                __aeabi_lasr
 .text          0x21f33404       0x1c /home/newfriday/cross_compile/AT91BootStrap/bin/../lib/gcc/arm-none-linux-gnueabi/4.3.3/libgcc.a(_ashldi3.o)
                0x21f33404                __ashldi3
                0x21f33404                __aeabi_llsl
 .text          0x21f33420       0x10 /home/newfriday/cross_compile/AT91BootStrap/bin/../lib/gcc/arm-none-linux-gnueabi/4.3.3/libgcc.a(_dvmd_lnx.o)
                0x21f33420                __aeabi_ldiv0
                0x21f33420                __aeabi_idiv0

.glue_7         0x21f33430        0x0
 .glue_7        0x00000000        0x0 linker stubs

.glue_7t        0x21f33430        0x0
 .glue_7t       0x00000000        0x0 linker stubs

.vfp11_veneer   0x21f33430        0x0
 .vfp11_veneer  0x00000000        0x0 linker stubs

.v4_bx          0x21f33430        0x0
 .v4_bx         0x00000000        0x0 linker stubs
                0x21f33430                . = ALIGN (0x4)

.rodata         0x21f33430     0xbe14
 *(SORT(.rodata*))
 .rodata.location.5460
                0x21f33430       0x60 common/built-in.o
 .rodata.C.40.3937
                0x21f33490       0x80 arch/arm/lib/built-in.o
 .rodata.atmel_mci_ops
                0x21f33510       0x14 drivers/mmc/built-in.o
 .rodata.baudrate_table
                0x21f33524       0x14 drivers/serial/built-in.o
 .rodata.block_drvr
                0x21f33538       0x24 disk/built-in.o
 .rodata.boot_os
                0x21f3355c       0x60 common/built-in.o
 .rodata.cc_to_error
                0x21f335bc       0x40 drivers/usb/host/built-in.o
 .rodata.cc_to_string
                0x21f335fc       0x40 drivers/usb/host/built-in.o
 .rodata.crc_table
                0x21f3363c      0x400 lib/built-in.o
 .rodata.env_flags_varaccess_mask
                0x21f33a3c       0x10 common/built-in.o
 .rodata.ext_csd_bits.4876
                0x21f33a4c       0x14 drivers/mmc/built-in.o
 .rodata.ext_to_hostcaps.4877
                0x21f33a60       0x1c drivers/mmc/built-in.o
 .rodata.fbase  0x21f33a7c       0x10 drivers/mmc/built-in.o
 .rodata.fdt_errtable
                0x21f33a8c       0x34 lib/built-in.o
 .rodata.multipliers
                0x21f33ac0       0x40 drivers/mmc/built-in.o
 .rodata.op_adv
                0x21f33b00      0x100 common/built-in.o
                0x21f33b00                op_adv
 .rodata.op_table
                0x21f33c00       0x68 common/built-in.o
 .rodata.uimage_arch
                0x21f33c68      0x12c common/built-in.o
 .rodata.uimage_comp
                0x21f33d94       0x48 common/built-in.o
 .rodata.uimage_os
                0x21f33ddc       0x6c common/built-in.o
 .rodata.uimage_type
                0x21f33e48      0x114 common/built-in.o
 .rodata.widths.4878
                0x21f33f5c       0x14 drivers/mmc/built-in.o
 .rodata.crc16_tab
                0x21f33f70      0x200 lib/built-in.o
 .rodata.dbase.4518
                0x21f34170       0x40 lib/built-in.o
 .rodata.dext.4519
                0x21f341b0       0x40 lib/built-in.o
 .rodata.distfix
                0x21f341f0       0x80 lib/built-in.o
 .rodata.lbase.4516
                0x21f34270       0x3e lib/built-in.o
 .rodata.lenfix
                0x21f342ae      0x800 lib/built-in.o
 .rodata.lext.4517
                0x21f34aae       0x3e lib/built-in.o
 .rodata.order.4742
                0x21f34aec       0x26 lib/built-in.o
 .rodata        0x21f34b12        0x3 common/built-in.o
 .rodata        0x21f34b15        0x7 net/built-in.o
 .rodata.C.76.5596
                0x21f34b1c        0x2 drivers/mtd/nand/built-in.o
 .rodata.C.95.4885
                0x21f34b1e        0x2 common/built-in.o
 .rodata.__FUNCTION__.5409
                0x21f34b20       0x17 common/built-in.o
 .rodata.__FUNCTION__.5416
                0x21f34b37       0x11 drivers/mtd/nand/built-in.o
 .rodata.__FUNCTION__.5492
                0x21f34b48        0xb drivers/mtd/nand/built-in.o
 .rodata.__FUNCTION__.5867
                0x21f34b53       0x11 drivers/mtd/nand/built-in.o
 .rodata.__FUNCTION__.5996
                0x21f34b64       0x14 net/built-in.o
 .rodata.__FUNCTION__.6225
                0x21f34b78       0x12 drivers/mtd/nand/built-in.o
 .rodata.__FUNCTION__.6860
                0x21f34b8a        0xe drivers/mtd/nand/built-in.o
 .rodata.__FUNCTION__.7716
                0x21f34b98        0xf drivers/mtd/nand/built-in.o
 .rodata.__func__.4199
                0x21f34ba7       0x10 common/built-in.o
 .rodata.__func__.4225
                0x21f34bb7        0xb common/built-in.o
 .rodata.__func__.4243
                0x21f34bc2        0xb common/built-in.o
 .rodata.__func__.4666
                0x21f34bcd        0xe common/built-in.o
 .rodata.__func__.4724
                0x21f34bdb        0xe common/built-in.o
 .rodata.__func__.5091
                0x21f34be9        0xe common/built-in.o
 .rodata.__func__.5127
                0x21f34bf7       0x18 common/built-in.o
 .rodata.__func__.5581
                0x21f34c0f        0xb common/built-in.o
 .rodata.__func__.6599
                0x21f34c1a       0x19 common/built-in.o
 .rodata._ctype
                0x21f34c33      0x100 lib/built-in.o
                0x21f34c33                _ctype
 .rodata.default_environment
                0x21f34d33      0x125 common/built-in.o
                0x21f34d33                default_environment
 .rodata.delims.4057
                0x21f34e58        0x3 common/built-in.o
 .rodata.digits.4203
                0x21f34e5b       0x10 lib/built-in.o
 .rodata.env_flags_varaccess_rep
                0x21f34e6b        0x5 common/built-in.o
 .rodata.env_flags_vartype_rep
                0x21f34e70        0x7 common/built-in.o
 .rodata.erase_seq
                0x21f34e77        0x4 common/built-in.o
 .rodata.hex_asc
                0x21f34e7b       0x11 lib/built-in.o
 .rodata.names.4101
                0x21f34e8c        0x6 lib/built-in.o
 .rodata.nand_ecc_precalc_table
                0x21f34e92      0x100 drivers/mtd/nand/built-in.o
 .rodata.net_bcast_ethaddr
                0x21f34f92        0x6 net/built-in.o
                0x21f34f92                net_bcast_ethaddr
 .rodata.str1.1
                0x21f34f98      0x38d arch/arm/lib/built-in.o
                                0x3c7 (size before relaxing)
 .rodata.str1.1
                0x21f35325       0x94 arch/arm/mach-at91/built-in.o
 .rodata.str1.1
                0x21f353b9       0x7e board/atmel/at91sam9263ek/built-in.o
                                 0x90 (size before relaxing)
 .rodata.str1.1
                0x21f35437     0x5e29 common/built-in.o
                               0x63bf (size before relaxing)
 .rodata.str1.1
                0x21f3b260      0x42b disk/built-in.o
                                0x469 (size before relaxing)
 .rodata.str1.1
                0x21f3b68b       0x29 drivers/gpio/built-in.o
 .rodata.str1.1
                0x21f3b6b4      0x46b drivers/mmc/built-in.o
                                0x4c2 (size before relaxing)
 .rodata.str1.1
                0x21f3bb1f      0x20b drivers/mtd/built-in.o
                                0x215 (size before relaxing)
 .rodata.str1.1
                0x21f3bd2a      0x91d drivers/mtd/nand/built-in.o
                                0x941 (size before relaxing)
 .rodata.str1.1
                0x21f3c647      0x1b0 drivers/net/built-in.o
 .rodata.str1.1
                0x21f3c7f7       0x57 drivers/serial/built-in.o
                                 0x92 (size before relaxing)
 .rodata.str1.1
                0x21f3c84e       0x29 drivers/spi/built-in.o
 .rodata.str1.1
                0x21f3c877      0x7e1 drivers/usb/host/built-in.o
 .rodata.str1.1
                0x21f3d058      0x290 fs/built-in.o
                                0x302 (size before relaxing)
 .rodata.str1.1
                0x21f3d2e8      0x712 lib/built-in.o
                                0x767 (size before relaxing)
 .rodata.str1.1
                0x21f3d9fa      0x7c9 net/built-in.o
                                0x931 (size before relaxing)
 .rodata.str1.1
                0x21f3e1c3       0x1b arch/arm/lib/eabi_compat.o
 .rodata.tab_seq
                0x21f3e1de        0x9 common/built-in.o
 .rodata.us_direction
                0x21f3e1e7       0x20 common/built-in.o
 .rodata.version_string
                0x21f3e207       0x3d common/built-in.o
                0x21f3e207                version_string
 .rodata.video_fontdata
                0x21f3e244     0x1000 common/built-in.o

.hash           0x21f3f244       0x2c
 .hash          0x21f3f244       0x2c arch/arm/cpu/arm926ejs/start.o
                0x21f3f270                . = ALIGN (0x4)

.data           0x21f3f270     0x8fd6
 *(.data*)
 .data.panel_info
                0x21f3f270       0x3c board/atmel/at91sam9263ek/built-in.o
                0x21f3f270                panel_info
 .data.area_list
                0x21f3f2ac       0xa0 board/atmel/at91sam9263ek/built-in.o
                0x21f3f2ac                area_list
 .data.cs       0x21f3f34c        0x8 board/atmel/at91sam9263ek/built-in.o
                0x21f3f34c                cs
 .data.reserved_list
                0x21f3f354       0x84 common/built-in.o
 .data.init_sequence_f
                0x21f3f3d8       0x90 common/built-in.o
 .data.init_sequence_r
                0x21f3f468       0x64 common/built-in.o
                0x21f3f468                init_sequence_r
 .data.bootm_help_text
                0x21f3f4cc      0x38b common/built-in.o
 *fill*         0x21f3f857        0x1 00
 .data.cmd_bootm_sub
                0x21f3f858       0xfc common/built-in.o
 .data.bootz_help_text
                0x21f3f954      0x208 common/built-in.o
 .data.first_call
                0x21f3fb5c        0x8 common/built-in.o
 .data.env_name_spec
                0x21f3fb64        0x4 common/built-in.o
                0x21f3fb64                env_name_spec
 .data.tabs.5596
                0x21f3fb68       0x21 common/built-in.o
 .data.root.5136
                0x21f3fb89        0x2 common/built-in.o
 .data.fdt_help_text
                0x21f3fb8b      0x5e3 common/built-in.o
 *fill*         0x21f4016e        0x2 00
 .data.dp_last_length
                0x21f40170        0x4 common/built-in.o
 .data.curr_device
                0x21f40174        0x4 common/built-in.o
 .data.cmd_mmc  0x21f40178      0x118 common/built-in.o
 .data.nand_help_text
                0x21f40290      0x3e3 common/built-in.o
 *fill*         0x21f40673        0x1 00
 .data.usb_stor_curr_dev
                0x21f40674        0x4 common/built-in.o
 .data.imgextract_help_text
                0x21f40678       0x55 common/built-in.o
 *fill*         0x21f406cd        0x3 00
 .data.do_splash.4662
                0x21f406d0        0x4 common/built-in.o
 .data.bmp_logo_bitmap
                0x21f406d4     0x3840 common/built-in.o
                0x21f406d4                bmp_logo_bitmap
 .data.bmp_logo_palette
                0x21f43f14      0x1e0 common/built-in.o
                0x21f43f14                bmp_logo_palette
 .data.env_help_text
                0x21f440f4      0x24f common/built-in.o
 *fill*         0x21f44343        0x1 00
 .data.env_id   0x21f44344        0x4 common/built-in.o
 .data.cmd_env_sub
                0x21f44348      0x118 common/built-in.o
 .data.env_htab
                0x21f44460       0x10 common/built-in.o
                0x21f44460                env_htab
 .data.av_      0x21f44470      0x408 common/built-in.o
 .data.sbrk_base
                0x21f44878        0x4 common/built-in.o
 .data.trim_threshold
                0x21f4487c        0x4 common/built-in.o
 .data.load_addr
                0x21f44880        0x4 common/built-in.o
                0x21f44880                load_addr
 .data.stdio_names
                0x21f44884        0xc common/built-in.o
                0x21f44884                stdio_names
 .data.hist_cur
                0x21f44890        0x4 common/built-in.o
 .data.cur_dev_num
                0x21f44894        0x4 drivers/mmc/built-in.o
 .data.nand_curr_device
                0x21f44898        0x4 drivers/mtd/nand/built-in.o
                0x21f44898                nand_curr_device
 .data.bbt_mirror_descr
                0x21f4489c       0x24 drivers/mtd/nand/built-in.o
 .data.mirror_pattern
                0x21f448c0        0x4 drivers/mtd/nand/built-in.o
 .data.bbt_main_no_oob_descr
                0x21f448c4       0x24 drivers/mtd/nand/built-in.o
 .data.bbt_mirror_no_oob_descr
                0x21f448e8       0x24 drivers/mtd/nand/built-in.o
 .data.bbt_pattern
                0x21f4490c        0x4 drivers/mtd/nand/built-in.o
 .data.scan_ff_pattern
                0x21f44910        0x2 drivers/mtd/nand/built-in.o
 *fill*         0x21f44912        0x2 00
 .data.bbt_main_descr
                0x21f44914       0x24 drivers/mtd/nand/built-in.o
 .data.nand_flash_ids
                0x21f44938      0xb88 drivers/mtd/nand/built-in.o
                0x21f44938                nand_flash_ids
 .data.nand_manuf_ids
                0x21f454c0       0x70 drivers/mtd/nand/built-in.o
                0x21f454c0                nand_manuf_ids
 .data.nand_oob_8
                0x21f45530      0xb08 drivers/mtd/nand/built-in.o
 .data.nand_oob_16
                0x21f46038      0xb08 drivers/mtd/nand/built-in.o
 .data.nand_oob_128
                0x21f46b40      0xb08 drivers/mtd/nand/built-in.o
 .data.nand_oob_64
                0x21f47648      0xb08 drivers/mtd/nand/built-in.o
 .data.atmel_serial_drv
                0x21f48150       0x30 drivers/serial/built-in.o
 .data.root_hub_str_index1
                0x21f48180       0x20 drivers/usb/host/built-in.o
 .data.root_hub_config_des
                0x21f481a0       0x19 drivers/usb/host/built-in.o
 .data.root_hub_dev_des
                0x21f481b9       0x12 drivers/usb/host/built-in.o
 .data.root_hub_str_index0
                0x21f481cb        0x4 drivers/usb/host/built-in.o
 *fill*         0x21f481cf        0x1 00
 .data.fstypes  0x21f481d0       0x58 fs/built-in.o
 .data.first_call.4228
                0x21f48228        0x4 net/built-in.o
 .data.net_native_vlan
                0x21f4822c        0x2 net/built-in.o
                0x21f4822c                net_native_vlan
 .data.net_our_vlan
                0x21f4822e        0x2 net/built-in.o
                0x21f4822e                net_our_vlan
 .data.nfs_offset
                0x21f48230        0x4 net/built-in.o
 .data.timeout_count_max
                0x21f48234        0x4 net/built-in.o
 .data.tftp_block_size_option
                0x21f48238        0x2 net/built-in.o
 *fill*         0x21f4823a        0x2 00
 .data.tftp_timeout_count_max
                0x21f4823c        0x4 net/built-in.o
                0x21f4823c                tftp_timeout_count_max
 .data.timeout_ms
                0x21f48240        0x4 net/built-in.o
 .data.tftp_block_size
                0x21f48244        0x2 net/built-in.o

.got            0x21f48248        0x0 load address 0x21f48246
 .got           0x00000000        0x0 arch/arm/cpu/arm926ejs/start.o

.got.plt        0x21f48248        0xc
 .got.plt       0x21f48248        0xc arch/arm/cpu/arm926ejs/start.o
                0x21f48248                _GLOBAL_OFFSET_TABLE_
                0x21f48254                . = ALIGN (0x4)
                0x21f48254                . = .
                0x21f48254                . = ALIGN (0x4)

.u_boot_list    0x21f48254      0x6a4
 *(SORT(.u_boot_list*))
 .u_boot_list_2_cmd_1
                0x21f48254        0x0 common/built-in.o
 .u_boot_list_2_cmd_2_base
                0x21f48254       0x1c common/built-in.o
                0x21f48254                _u_boot_list_2_cmd_2_base
 .u_boot_list_2_cmd_2_boot
                0x21f48270       0x1c common/built-in.o
                0x21f48270                _u_boot_list_2_cmd_2_boot
 .u_boot_list_2_cmd_2_bootd
                0x21f4828c       0x1c common/built-in.o
                0x21f4828c                _u_boot_list_2_cmd_2_bootd
 .u_boot_list_2_cmd_2_bootm
                0x21f482a8       0x1c common/built-in.o
                0x21f482a8                _u_boot_list_2_cmd_2_bootm
 .u_boot_list_2_cmd_2_bootp
                0x21f482c4       0x1c common/built-in.o
                0x21f482c4                _u_boot_list_2_cmd_2_bootp
 .u_boot_list_2_cmd_2_bootz
                0x21f482e0       0x1c common/built-in.o
                0x21f482e0                _u_boot_list_2_cmd_2_bootz
 .u_boot_list_2_cmd_2_cls
                0x21f482fc       0x1c common/built-in.o
                0x21f482fc                _u_boot_list_2_cmd_2_cls
 .u_boot_list_2_cmd_2_cmp
                0x21f48318       0x1c common/built-in.o
                0x21f48318                _u_boot_list_2_cmd_2_cmp
 .u_boot_list_2_cmd_2_coninfo
                0x21f48334       0x1c common/built-in.o
                0x21f48334                _u_boot_list_2_cmd_2_coninfo
 .u_boot_list_2_cmd_2_cp
                0x21f48350       0x1c common/built-in.o
                0x21f48350                _u_boot_list_2_cmd_2_cp
 .u_boot_list_2_cmd_2_crc32
                0x21f4836c       0x1c common/built-in.o
                0x21f4836c                _u_boot_list_2_cmd_2_crc32
 .u_boot_list_2_cmd_2_dhcp
                0x21f48388       0x1c common/built-in.o
                0x21f48388                _u_boot_list_2_cmd_2_dhcp
 .u_boot_list_2_cmd_2_echo
                0x21f483a4       0x1c common/built-in.o
                0x21f483a4                _u_boot_list_2_cmd_2_echo
 .u_boot_list_2_cmd_2_editenv
                0x21f483c0       0x1c common/built-in.o
                0x21f483c0                _u_boot_list_2_cmd_2_editenv
 .u_boot_list_2_cmd_2_env
                0x21f483dc       0x1c common/built-in.o
                0x21f483dc                _u_boot_list_2_cmd_2_env
 .u_boot_list_2_cmd_2_erase
                0x21f483f8       0x1c common/built-in.o
                0x21f483f8                _u_boot_list_2_cmd_2_erase
 .u_boot_list_2_cmd_2_exit
                0x21f48414       0x1c common/built-in.o
                0x21f48414                _u_boot_list_2_cmd_2_exit
 .u_boot_list_2_cmd_2_false
                0x21f48430       0x1c common/built-in.o
                0x21f48430                _u_boot_list_2_cmd_2_false
 .u_boot_list_2_cmd_2_fatinfo
                0x21f4844c       0x1c common/built-in.o
                0x21f4844c                _u_boot_list_2_cmd_2_fatinfo
 .u_boot_list_2_cmd_2_fatload
                0x21f48468       0x1c common/built-in.o
                0x21f48468                _u_boot_list_2_cmd_2_fatload
 .u_boot_list_2_cmd_2_fatls
                0x21f48484       0x1c common/built-in.o
                0x21f48484                _u_boot_list_2_cmd_2_fatls
 .u_boot_list_2_cmd_2_fatsize
                0x21f484a0       0x1c common/built-in.o
                0x21f484a0                _u_boot_list_2_cmd_2_fatsize
 .u_boot_list_2_cmd_2_fdt
                0x21f484bc       0x1c common/built-in.o
                0x21f484bc                _u_boot_list_2_cmd_2_fdt
 .u_boot_list_2_cmd_2_flinfo
                0x21f484d8       0x1c common/built-in.o
                0x21f484d8                _u_boot_list_2_cmd_2_flinfo
 .u_boot_list_2_cmd_2_go
                0x21f484f4       0x1c common/built-in.o
                0x21f484f4                _u_boot_list_2_cmd_2_go
 .u_boot_list_2_cmd_2_help
                0x21f48510       0x1c common/built-in.o
                0x21f48510                _u_boot_list_2_cmd_2_help
 .u_boot_list_2_cmd_2_imxtract
                0x21f4852c       0x1c common/built-in.o
                0x21f4852c                _u_boot_list_2_cmd_2_imxtract
 .u_boot_list_2_cmd_2_itest
                0x21f48548       0x1c common/built-in.o
                0x21f48548                _u_boot_list_2_cmd_2_itest
 .u_boot_list_2_cmd_2_lcdputs
                0x21f48564       0x1c common/built-in.o
                0x21f48564                _u_boot_list_2_cmd_2_lcdputs
 .u_boot_list_2_cmd_2_loadb
                0x21f48580       0x1c common/built-in.o
                0x21f48580                _u_boot_list_2_cmd_2_loadb
 .u_boot_list_2_cmd_2_loadx
                0x21f4859c       0x1c common/built-in.o
                0x21f4859c                _u_boot_list_2_cmd_2_loadx
 .u_boot_list_2_cmd_2_loady
                0x21f485b8       0x1c common/built-in.o
                0x21f485b8                _u_boot_list_2_cmd_2_loady
 .u_boot_list_2_cmd_2_loop
                0x21f485d4       0x1c common/built-in.o
                0x21f485d4                _u_boot_list_2_cmd_2_loop
 .u_boot_list_2_cmd_2_md
                0x21f485f0       0x1c common/built-in.o
                0x21f485f0                _u_boot_list_2_cmd_2_md
 .u_boot_list_2_cmd_2_mm
                0x21f4860c       0x1c common/built-in.o
                0x21f4860c                _u_boot_list_2_cmd_2_mm
 .u_boot_list_2_cmd_2_mmc
                0x21f48628       0x1c common/built-in.o
                0x21f48628                _u_boot_list_2_cmd_2_mmc
 .u_boot_list_2_cmd_2_mmcinfo
                0x21f48644       0x1c common/built-in.o
                0x21f48644                _u_boot_list_2_cmd_2_mmcinfo
 .u_boot_list_2_cmd_2_mw
                0x21f48660       0x1c common/built-in.o
                0x21f48660                _u_boot_list_2_cmd_2_mw
 .u_boot_list_2_cmd_2_nand
                0x21f4867c       0x1c common/built-in.o
                0x21f4867c                _u_boot_list_2_cmd_2_nand
 .u_boot_list_2_cmd_2_nboot
                0x21f48698       0x1c common/built-in.o
                0x21f48698                _u_boot_list_2_cmd_2_nboot
 .u_boot_list_2_cmd_2_nfs
                0x21f486b4       0x1c common/built-in.o
                0x21f486b4                _u_boot_list_2_cmd_2_nfs
 .u_boot_list_2_cmd_2_nm
                0x21f486d0       0x1c common/built-in.o
                0x21f486d0                _u_boot_list_2_cmd_2_nm
 .u_boot_list_2_cmd_2_ping
                0x21f486ec       0x1c common/built-in.o
                0x21f486ec                _u_boot_list_2_cmd_2_ping
 .u_boot_list_2_cmd_2_printenv
                0x21f48708       0x1c common/built-in.o
                0x21f48708                _u_boot_list_2_cmd_2_printenv
 .u_boot_list_2_cmd_2_protect
                0x21f48724       0x1c common/built-in.o
                0x21f48724                _u_boot_list_2_cmd_2_protect
 .u_boot_list_2_cmd_2_question_mark
                0x21f48740       0x1c common/built-in.o
                0x21f48740                _u_boot_list_2_cmd_2_question_mark
 .u_boot_list_2_cmd_2_reset
                0x21f4875c       0x1c common/built-in.o
                0x21f4875c                _u_boot_list_2_cmd_2_reset
 .u_boot_list_2_cmd_2_run
                0x21f48778       0x1c common/built-in.o
                0x21f48778                _u_boot_list_2_cmd_2_run
 .u_boot_list_2_cmd_2_saveenv
                0x21f48794       0x1c common/built-in.o
                0x21f48794                _u_boot_list_2_cmd_2_saveenv
 .u_boot_list_2_cmd_2_setcurs
                0x21f487b0       0x1c common/built-in.o
                0x21f487b0                _u_boot_list_2_cmd_2_setcurs
 .u_boot_list_2_cmd_2_setenv
                0x21f487cc       0x1c common/built-in.o
                0x21f487cc                _u_boot_list_2_cmd_2_setenv
 .u_boot_list_2_cmd_2_showvar
                0x21f487e8       0x1c common/built-in.o
                0x21f487e8                _u_boot_list_2_cmd_2_showvar
 .u_boot_list_2_cmd_2_sleep
                0x21f48804       0x1c common/built-in.o
                0x21f48804                _u_boot_list_2_cmd_2_sleep
 .u_boot_list_2_cmd_2_test
                0x21f48820       0x1c common/built-in.o
                0x21f48820                _u_boot_list_2_cmd_2_test
 .u_boot_list_2_cmd_2_tftpboot
                0x21f4883c       0x1c common/built-in.o
                0x21f4883c                _u_boot_list_2_cmd_2_tftpboot
 .u_boot_list_2_cmd_2_true
                0x21f48858       0x1c common/built-in.o
                0x21f48858                _u_boot_list_2_cmd_2_true
 .u_boot_list_2_cmd_2_usb
                0x21f48874       0x1c common/built-in.o
                0x21f48874                _u_boot_list_2_cmd_2_usb
 .u_boot_list_2_cmd_2_usbboot
                0x21f48890       0x1c common/built-in.o
                0x21f48890                _u_boot_list_2_cmd_2_usbboot
 .u_boot_list_2_cmd_2_version
                0x21f488ac       0x1c common/built-in.o
                0x21f488ac                _u_boot_list_2_cmd_2_version
 .u_boot_list_2_cmd_3
                0x21f488c8        0x0 common/built-in.o
 .u_boot_list_2_env_clbk_1
                0x21f488c8        0x0 common/built-in.o
 .u_boot_list_2_env_clbk_2_baudrate
                0x21f488c8        0x8 drivers/serial/built-in.o
                0x21f488c8                _u_boot_list_2_env_clbk_2_baudrate
 .u_boot_list_2_env_clbk_2_bootfile
                0x21f488d0        0x8 net/built-in.o
                0x21f488d0                _u_boot_list_2_env_clbk_2_bootfile
 .u_boot_list_2_env_clbk_2_callbacks
                0x21f488d8        0x8 common/built-in.o
                0x21f488d8                _u_boot_list_2_env_clbk_2_callbacks
 .u_boot_list_2_env_clbk_2_console
                0x21f488e0        0x8 common/built-in.o
                0x21f488e0                _u_boot_list_2_env_clbk_2_console
 .u_boot_list_2_env_clbk_2_flags
                0x21f488e8        0x8 common/built-in.o
                0x21f488e8                _u_boot_list_2_env_clbk_2_flags
 .u_boot_list_2_env_clbk_2_loadaddr
                0x21f488f0        0x8 common/built-in.o
                0x21f488f0                _u_boot_list_2_env_clbk_2_loadaddr
 .u_boot_list_2_env_clbk_3
                0x21f488f8        0x0 common/built-in.o
                0x21f488f8                . = ALIGN (0x4)

.image_copy_end
                0x21f488f8        0x0
 *(.__image_copy_end)
 .__image_copy_end
                0x21f488f8        0x0 arch/arm/lib/built-in.o

.rel_dyn_start  0x21f488f8        0x0
 *(.__rel_dyn_start)
 .__rel_dyn_start
                0x21f488f8        0x0 arch/arm/lib/built-in.o

.rel.dyn        0x21f488f8     0x6df0
 *(.rel*)
 .rel.got       0x00000000        0x0 arch/arm/cpu/arm926ejs/start.o
 .rel.plt       0x00000000        0x0 arch/arm/cpu/arm926ejs/start.o
 .rel.text      0x21f488f8       0x18 arch/arm/cpu/arm926ejs/start.o
 .rel.vectors   0x21f48910       0x38 arch/arm/cpu/arm926ejs/start.o
 .rel.text.relocate_vectors
                0x21f48948       0x20 arch/arm/cpu/arm926ejs/start.o
 .rel.text.boot_prep_vxworks
                0x21f48968       0x10 arch/arm/cpu/arm926ejs/start.o
 .rel.text.bootz_setup
                0x21f48978       0x10 arch/arm/cpu/arm926ejs/start.o
 .rel.text.boot_prep_linux
                0x21f48988       0x18 arch/arm/cpu/arm926ejs/start.o
 .rel.text.boot_jump_linux
                0x21f489a0       0x28 arch/arm/cpu/arm926ejs/start.o
 .rel.text.interrupt_init
                0x21f489c8        0x8 arch/arm/cpu/arm926ejs/start.o
 .rel.text.show_regs
                0x21f489d0       0x60 arch/arm/cpu/arm926ejs/start.o
 .rel.text.bad_mode
                0x21f48a30        0x8 arch/arm/cpu/arm926ejs/start.o
 .rel.text.do_irq
                0x21f48a38        0x8 arch/arm/cpu/arm926ejs/start.o
 .rel.text.do_fiq
                0x21f48a40        0x8 arch/arm/cpu/arm926ejs/start.o
 .rel.text.do_not_used
                0x21f48a48        0x8 arch/arm/cpu/arm926ejs/start.o
 .rel.text.do_data_abort
                0x21f48a50        0x8 arch/arm/cpu/arm926ejs/start.o
 .rel.text.do_prefetch_abort
                0x21f48a58        0x8 arch/arm/cpu/arm926ejs/start.o
 .rel.text.do_software_interrupt
                0x21f48a60        0x8 arch/arm/cpu/arm926ejs/start.o
 .rel.text.do_undefined_instruction
                0x21f48a68        0x8 arch/arm/cpu/arm926ejs/start.o
 .rel.text.do_reset
                0x21f48a70        0x8 arch/arm/cpu/arm926ejs/start.o
 .rel.text.enable_caches
                0x21f48a78        0x8 arch/arm/cpu/arm926ejs/start.o
 .rel.rodata.C.40.3937
                0x21f48a80      0x100 arch/arm/cpu/arm926ejs/start.o
 .rel.text.at91_phy_reset
                0x21f48b80        0x8 arch/arm/cpu/arm926ejs/start.o
 .rel.text.at91_clock_init
                0x21f48b88       0x20 arch/arm/cpu/arm926ejs/start.o
 .rel.text.print_cpuinfo
                0x21f48ba8       0x28 arch/arm/cpu/arm926ejs/start.o
 .rel.text.lcd_show_board_info
                0x21f48bd0       0x48 arch/arm/cpu/arm926ejs/start.o
 .rel.text.jumptable_init
                0x21f48c18       0xa8 arch/arm/cpu/arm926ejs/start.o
 .rel.text.hash_command
                0x21f48cc0        0x8 arch/arm/cpu/arm926ejs/start.o
 .rel.text.hash_show
                0x00000000        0x0 arch/arm/cpu/arm926ejs/start.o
 .rel.text.hash_progressive_lookup_algo
                0x00000000        0x0 arch/arm/cpu/arm926ejs/start.o
 .rel.text.hash_lookup_algo
                0x00000000        0x0 arch/arm/cpu/arm926ejs/start.o
 .rel.text.setup_string_in_str
                0x21f48cc8       0x10 arch/arm/cpu/arm926ejs/start.o
 .rel.text.indenter
                0x00000000        0x0 arch/arm/cpu/arm926ejs/start.o
 .rel.text.is_assignment
                0x21f48cd8        0x8 arch/arm/cpu/arm926ejs/start.o
 .rel.text.mapset
                0x21f48ce0        0x8 arch/arm/cpu/arm926ejs/start.o
 .rel.text.syntax_err
                0x21f48ce8        0x8 arch/arm/cpu/arm926ejs/start.o
 .rel.text.do_showvar
                0x21f48cf0       0x20 arch/arm/cpu/arm926ejs/start.o
 .rel.text.u_boot_hush_start
                0x21f48d10       0x18 arch/arm/cpu/arm926ejs/start.o
 .rel.text.xmalloc
                0x21f48d28        0x8 arch/arm/cpu/arm926ejs/start.o
 .rel.text.file_get
                0x21f48d30       0x30 arch/arm/cpu/arm926ejs/start.o
 .rel.text.unset_local_var
                0x00000000        0x0 arch/arm/cpu/arm926ejs/start.o
 .rel.text.xrealloc
                0x21f48d60        0x8 arch/arm/cpu/arm926ejs/start.o
 .rel.text.done_word
                0x21f48d68       0x10 arch/arm/cpu/arm926ejs/start.o
 .rel.text.b_addqchr
                0x21f48d78        0x8 arch/arm/cpu/arm926ejs/start.o
 .rel.text.get_local_var
                0x21f48d80       0x20 arch/arm/cpu/arm926ejs/start.o
 .rel.text.set_local_var
                0x21f48da0       0x20 arch/arm/cpu/arm926ejs/start.o
 .rel.text.insert_var_value_sub
                0x21f48dc0        0x8 arch/arm/cpu/arm926ejs/start.o
 .rel.text.run_list_real
                0x21f48dc8       0x40 arch/arm/cpu/arm926ejs/start.o
 .rel.text.parse_stream_outer
                0x21f48e08       0x70 arch/arm/cpu/arm926ejs/start.o
 .rel.text.parse_file_outer
                0x21f48e78       0x10 arch/arm/cpu/arm926ejs/start.o
 .rel.text.parse_string_outer
                0x21f48e88        0x8 arch/arm/cpu/arm926ejs/start.o
 .rel.text.autoboot_command
                0x21f48e90       0x18 arch/arm/cpu/arm926ejs/start.o
 .rel.text.bootdelay_process
                0x21f48ea8       0x18 arch/arm/cpu/arm926ejs/start.o
 .rel.text.setup_mon_len
                0x21f48ec0       0x10 arch/arm/cpu/arm926ejs/start.o
 .rel.text.board_init_f
                0x21f48ed0        0x8 arch/arm/cpu/arm926ejs/start.o
 .rel.text.show_dram_config
                0x21f48ed8        0x8 arch/arm/cpu/arm926ejs/start.o
 .rel.text.announce_dram_init
                0x21f48ee0        0x8 arch/arm/cpu/arm926ejs/start.o
 .rel.text.init_baud_rate
                0x21f48ee8        0x8 arch/arm/cpu/arm926ejs/start.o
 .rel.text.initr_reloc_global_data
                0x21f48ef0       0x18 arch/arm/cpu/arm926ejs/start.o
 .rel.text.initr_net
                0x21f48f08        0x8 arch/arm/cpu/arm926ejs/start.o
 .rel.text.initr_ethaddr
                0x21f48f10        0x8 arch/arm/cpu/arm926ejs/start.o
 .rel.text.initr_env
                0x21f48f18       0x10 arch/arm/cpu/arm926ejs/start.o
 .rel.text.initr_mmc
                0x21f48f28        0x8 arch/arm/cpu/arm926ejs/start.o
 .rel.text.initr_nand
                0x21f48f30        0x8 arch/arm/cpu/arm926ejs/start.o
 .rel.text.board_init_r
                0x21f48f38        0x8 arch/arm/cpu/arm926ejs/start.o
 .rel.text.do_go
                0x21f48f40       0x10 arch/arm/cpu/arm926ejs/start.o
 .rel.text.do_bootz
                0x21f48f50       0x10 arch/arm/cpu/arm926ejs/start.o
 .rel.text.do_bootd
                0x21f48f60        0x8 arch/arm/cpu/arm926ejs/start.o
 .rel.text.do_bootm
                0x21f48f68       0x18 arch/arm/cpu/arm926ejs/start.o
 .rel.text.bootm_maybe_autostart
                0x21f48f80       0x20 arch/arm/cpu/arm926ejs/start.o
 .rel.text.bootm_decomp_image
                0x21f48fa0       0x48 arch/arm/cpu/arm926ejs/start.o
 .rel.text.bootm_find_ramdisk_fdt
                0x21f48fe8       0x18 arch/arm/cpu/arm926ejs/start.o
 .rel.text.do_bootm_states
                0x21f49000       0xb8 arch/arm/cpu/arm926ejs/start.o
 .rel.text.bootm_os_get_boot_func
                0x21f490b8        0x8 arch/arm/cpu/arm926ejs/start.o
 .rel.text.do_bootm_plan9
                0x21f490c0       0x18 arch/arm/cpu/arm926ejs/start.o
 .rel.text.do_bootm_rtems
                0x21f490d8        0x8 arch/arm/cpu/arm926ejs/start.o
 .rel.text.do_bootm_standalone
                0x21f490e0       0x18 arch/arm/cpu/arm926ejs/start.o
 .rel.text.do_bootm_netbsd
                0x21f490f8       0x18 arch/arm/cpu/arm926ejs/start.o
 .rel.text.do_bootvx_fdt
                0x21f49110       0x38 arch/arm/cpu/arm926ejs/start.o
 .rel.text.do_help
                0x21f49148       0x10 arch/arm/cpu/arm926ejs/start.o
 .rel.text.do_version
                0x21f49158       0x20 arch/arm/cpu/arm926ejs/start.o
 .rel.text.env_attr_lookup
                0x21f49178        0x8 arch/arm/cpu/arm926ejs/start.o
 .rel.text.on_callbacks
                0x21f49180       0x20 arch/arm/cpu/arm926ejs/start.o
 .rel.text.find_env_callback
                0x21f491a0       0x10 arch/arm/cpu/arm926ejs/start.o
 .rel.text.set_callback
                0x21f491b0        0x8 arch/arm/cpu/arm926ejs/start.o
 .rel.text.env_callback_init
                0x21f491b8       0x20 arch/arm/cpu/arm926ejs/start.o
 .rel.text.skip_num
                0x21f491d8        0x8 arch/arm/cpu/arm926ejs/start.o
 .rel.text.on_flags
                0x21f491e0       0x20 arch/arm/cpu/arm926ejs/start.o
 .rel.text.env_flags_parse_varaccess_from_binflags
                0x00000000        0x0 arch/arm/cpu/arm926ejs/start.o
 .rel.text.env_flags_validate
                0x21f49200       0x68 arch/arm/cpu/arm926ejs/start.o
 .rel.text.env_flags_parse_varaccess
                0x21f49268       0x10 arch/arm/cpu/arm926ejs/start.o
 .rel.text.env_flags_parse_vartype
                0x21f49278       0x10 arch/arm/cpu/arm926ejs/start.o
 .rel.text.env_parse_flags_to_bin
                0x21f49288        0x8 arch/arm/cpu/arm926ejs/start.o
 .rel.text.set_flags
                0x21f49290        0x8 arch/arm/cpu/arm926ejs/start.o
 .rel.text.env_flags_init
                0x21f49298       0x28 arch/arm/cpu/arm926ejs/start.o
 .rel.text.env_init
                0x21f492c0        0x8 arch/arm/cpu/arm926ejs/start.o
 .rel.text.readenv
                0x21f492c8        0x8 arch/arm/cpu/arm926ejs/start.o
 .rel.text.env_relocate_spec
                0x21f492d0       0x38 arch/arm/cpu/arm926ejs/start.o
 .rel.text.erase_and_write_env
                0x21f49308       0x28 arch/arm/cpu/arm926ejs/start.o
 .rel.text.saveenv
                0x21f49330       0x18 arch/arm/cpu/arm926ejs/start.o
 .rel.text.do_coninfo
                0x21f49348       0x28 arch/arm/cpu/arm926ejs/start.o
 .rel.text.do_echo
                0x21f49370        0x8 arch/arm/cpu/arm926ejs/start.o
 .rel.text.do_fat_fsinfo
                0x21f49378       0x10 arch/arm/cpu/arm926ejs/start.o
 .rel.text.is_printable_string
                0x21f49388        0x8 arch/arm/cpu/arm926ejs/start.o
 .rel.text.set_working_fdt_addr
                0x21f49390       0x10 arch/arm/cpu/arm926ejs/start.o
 .rel.text.fdt_valid
                0x21f493a0       0x28 arch/arm/cpu/arm926ejs/start.o
 .rel.text.print_data
                0x21f493c8       0x58 arch/arm/cpu/arm926ejs/start.o
 .rel.text.do_fdt
                0x21f49420      0x240 arch/arm/cpu/arm926ejs/start.o
 .rel.text.fdt_set_phandle
                0x00000000        0x0 arch/arm/cpu/arm926ejs/start.o
 .rel.text.of_bus_default_count_cells
                0x00000000        0x0 arch/arm/cpu/arm926ejs/start.o
 .rel.text.fdt_setup_simplefb_node
                0x00000000        0x0 arch/arm/cpu/arm926ejs/start.o
 .rel.text.fdt_set_node_status
                0x00000000        0x0 arch/arm/cpu/arm926ejs/start.o
 .rel.text.fdt_create_phandle
                0x00000000        0x0 arch/arm/cpu/arm926ejs/start.o
 .rel.text.fdt_translate_address
                0x00000000        0x0 arch/arm/cpu/arm926ejs/start.o
 .rel.text.fdt_read_range
                0x00000000        0x0 arch/arm/cpu/arm926ejs/start.o
 .rel.text.fdt_get_base_address
                0x00000000        0x0 arch/arm/cpu/arm926ejs/start.o
 .rel.text.fdt_verify_alias_address
                0x00000000        0x0 arch/arm/cpu/arm926ejs/start.o
 .rel.text.fdt_node_offset_by_compat_reg
                0x00000000        0x0 arch/arm/cpu/arm926ejs/start.o
 .rel.text.fdt_del_node_and_alias
                0x00000000        0x0 arch/arm/cpu/arm926ejs/start.o
 .rel.text.fdt_add_edid
                0x00000000        0x0 arch/arm/cpu/arm926ejs/start.o
 .rel.text.do_fixup_by_path
                0x21f49660        0x8 arch/arm/cpu/arm926ejs/start.o
 .rel.text.fdt_fixup_ethernet
                0x21f49668       0x38 arch/arm/cpu/arm926ejs/start.o
 .rel.text.fdt_find_or_add_subnode
                0x21f496a0       0x10 arch/arm/cpu/arm926ejs/start.o
 .rel.text.fdt_fixup_memory_banks
                0x21f496b0       0x38 arch/arm/cpu/arm926ejs/start.o
 .rel.text.fdt_chosen
                0x21f496e8       0x20 arch/arm/cpu/arm926ejs/start.o
 .rel.text.fdt_initrd
                0x21f49708       0x30 arch/arm/cpu/arm926ejs/start.o
 .rel.text.do_protect
                0x21f49738       0x40 arch/arm/cpu/arm926ejs/start.o
 .rel.text.binary_test
                0x21f49778       0x78 arch/arm/cpu/arm926ejs/start.o
 .rel.text.do_itest
                0x21f497f0       0x40 arch/arm/cpu/arm926ejs/start.o
 .rel.text.bin_data_init
                0x21f49830       0x18 arch/arm/cpu/arm926ejs/start.o
 .rel.text.bin_data_char
                0x21f49848       0x10 arch/arm/cpu/arm926ejs/start.o
 .rel.text.k_data_save
                0x21f49858       0x30 arch/arm/cpu/arm926ejs/start.o
 .rel.text.k_data_restore
                0x21f49888       0x30 arch/arm/cpu/arm926ejs/start.o
 .rel.text.load_serial_ymodem
                0x21f498b8       0x20 arch/arm/cpu/arm926ejs/start.o
 .rel.text.s1_sendpacket
                0x21f498d8       0x10 arch/arm/cpu/arm926ejs/start.o
 .rel.text.do_load_serial_bin
                0x21f498e8       0xf0 arch/arm/cpu/arm926ejs/start.o
 .rel.text.do_mem_mw
                0x21f499d8        0x8 arch/arm/cpu/arm926ejs/start.o
 .rel.text.do_mem_base
                0x21f499e0       0x10 arch/arm/cpu/arm926ejs/start.o
 .rel.text.do_mem_crc
                0x21f499f0        0x8 arch/arm/cpu/arm926ejs/start.o
 .rel.text.do_mem_cmp
                0x21f499f8       0x40 arch/arm/cpu/arm926ejs/start.o
 .rel.text.do_mem_cp
                0x21f49a38       0x28 arch/arm/cpu/arm926ejs/start.o
 .rel.text.mod_mem
                0x21f49a60       0x50 arch/arm/cpu/arm926ejs/start.o
 .rel.text.do_mem_md
                0x21f49ab0       0x20 arch/arm/cpu/arm926ejs/start.o
 .rel.text.init_mmc_device
                0x21f49ad0        0x8 arch/arm/cpu/arm926ejs/start.o
 .rel.text.do_mmc_rescan
                0x21f49ad8        0x8 arch/arm/cpu/arm926ejs/start.o
 .rel.text.do_mmcinfo
                0x21f49ae0       0xf8 arch/arm/cpu/arm926ejs/start.o
 .rel.text.do_mmcops
                0x21f49bd8       0x18 arch/arm/cpu/arm926ejs/start.o
 .rel.text.do_mmc_setdsr
                0x21f49bf0       0x28 arch/arm/cpu/arm926ejs/start.o
 .rel.text.do_mmc_hwpartition
                0x21f49c18       0xb0 arch/arm/cpu/arm926ejs/start.o
 .rel.text.do_mmc_dev
                0x21f49cc8       0x38 arch/arm/cpu/arm926ejs/start.o
 .rel.text.do_mmc_part
                0x21f49d00       0x10 arch/arm/cpu/arm926ejs/start.o
 .rel.text.do_mmc_erase
                0x21f49d10       0x30 arch/arm/cpu/arm926ejs/start.o
 .rel.text.do_mmc_write
                0x21f49d40       0x30 arch/arm/cpu/arm926ejs/start.o
 .rel.text.do_mmc_read
                0x21f49d70       0x28 arch/arm/cpu/arm926ejs/start.o
 .rel.text.do_nandboot
                0x21f49d98       0x80 arch/arm/cpu/arm926ejs/start.o
 .rel.text.nand_print_and_set_info
                0x21f49e18       0x68 arch/arm/cpu/arm926ejs/start.o
 .rel.text.arg_off
                0x21f49e80       0x18 arch/arm/cpu/arm926ejs/start.o
 .rel.text.arg_off_size
                0x21f49e98       0x30 arch/arm/cpu/arm926ejs/start.o
 .rel.text.do_nand
                0x21f49ec8      0x1a8 arch/arm/cpu/arm926ejs/start.o
 .rel.text.do_ping
                0x21f4a070       0x18 arch/arm/cpu/arm926ejs/start.o
 .rel.text.netboot_common
                0x21f4a088       0x98 arch/arm/cpu/arm926ejs/start.o
 .rel.text.do_test
                0x21f4a120       0x70 arch/arm/cpu/arm926ejs/start.o
 .rel.text.usb_get_class_desc
                0x21f4a190       0x50 arch/arm/cpu/arm926ejs/start.o
 .rel.text.do_usbboot
                0x21f4a1e0        0x8 arch/arm/cpu/arm926ejs/start.o
 .rel.text.usb_display_class_sub
                0x21f4a1e8       0xc8 arch/arm/cpu/arm926ejs/start.o
 .rel.text.do_usb_start
                0x21f4a2b0        0x8 arch/arm/cpu/arm926ejs/start.o
 .rel.text.usb_show_tree_graph
                0x21f4a2b8       0x58 arch/arm/cpu/arm926ejs/start.o
 .rel.text.usb_display_desc
                0x21f4a310       0x38 arch/arm/cpu/arm926ejs/start.o
 .rel.text.usb_display_string
                0x21f4a348        0x8 arch/arm/cpu/arm926ejs/start.o
 .rel.text.usb_display_config
                0x21f4a350       0xc8 arch/arm/cpu/arm926ejs/start.o
 .rel.text.do_usb
                0x21f4a418      0x170 arch/arm/cpu/arm926ejs/start.o
 .rel.text.usb_disable_asynch
                0x21f4a588        0x8 arch/arm/cpu/arm926ejs/start.o
 .rel.text.usb_get_dev_index
                0x21f4a590        0x8 arch/arm/cpu/arm926ejs/start.o
 .rel.text.usb_alloc_new_device
                0x21f4a598       0x18 arch/arm/cpu/arm926ejs/start.o
 .rel.text.usb_free_device
                0x21f4a5b0       0x10 arch/arm/cpu/arm926ejs/start.o
 .rel.text.usb_legacy_port_reset
                0x21f4a5c0        0x8 arch/arm/cpu/arm926ejs/start.o
 .rel.text.usb_control_msg
                0x21f4a5c8        0x8 arch/arm/cpu/arm926ejs/start.o
 .rel.text.get_descriptor_len
                0x21f4a5d0       0x10 arch/arm/cpu/arm926ejs/start.o
 .rel.text.usb_get_configuration_no
                0x21f4a5e0       0x20 arch/arm/cpu/arm926ejs/start.o
 .rel.text.usb_string_sub
                0x21f4a600        0x8 arch/arm/cpu/arm926ejs/start.o
 .rel.text.usb_select_config
                0x21f4a608       0x70 arch/arm/cpu/arm926ejs/start.o
 .rel.text.usb_setup_device
                0x21f4a678       0x18 arch/arm/cpu/arm926ejs/start.o
 .rel.text.usb_set_interface
                0x21f4a690        0x8 arch/arm/cpu/arm926ejs/start.o
 .rel.text.usb_stop
                0x21f4a698       0x18 arch/arm/cpu/arm926ejs/start.o
 .rel.text.usb_init
                0x21f4a6b0       0x60 arch/arm/cpu/arm926ejs/start.o
 .rel.text.usb_hub_reset
                0x21f4a710        0x8 arch/arm/cpu/arm926ejs/start.o
 .rel.text.usb_hub_power_on
                0x21f4a718        0x8 arch/arm/cpu/arm926ejs/start.o
 .rel.text.usb_hub_port_connect_change
                0x21f4a720       0x10 arch/arm/cpu/arm926ejs/start.o
 .rel.text.usb_hub_configure
                0x21f4a730       0x18 arch/arm/cpu/arm926ejs/start.o
 .rel.text.usb_stor_get_dev
                0x21f4a748       0x10 arch/arm/cpu/arm926ejs/start.o
 .rel.text.usb_stor_reset
                0x21f4a758        0x8 arch/arm/cpu/arm926ejs/start.o
 .rel.text.usb_stor_get_info
                0x21f4a760       0x20 arch/arm/cpu/arm926ejs/start.o
 .rel.text.usb_storage_probe
                0x21f4a780       0x38 arch/arm/cpu/arm926ejs/start.o
 .rel.text.usb_stor_BBB_transport
                0x21f4a7b8       0x10 arch/arm/cpu/arm926ejs/start.o
 .rel.text.usb_stor_CB_comdat
                0x21f4a7c8        0x8 arch/arm/cpu/arm926ejs/start.o
 .rel.text.usb_stor_CBI_get_status
                0x21f4a7d0        0x8 arch/arm/cpu/arm926ejs/start.o
 .rel.text.usb_stor_CB_transport
                0x21f4a7d8       0x10 arch/arm/cpu/arm926ejs/start.o
 .rel.text.usb_stor_write
                0x21f4a7e8       0x10 arch/arm/cpu/arm926ejs/start.o
 .rel.text.usb_stor_read
                0x21f4a7f8       0x10 arch/arm/cpu/arm926ejs/start.o
 .rel.text.usb_stor_scan
                0x21f4a808       0x40 arch/arm/cpu/arm926ejs/start.o
 .rel.text.usb_stor_info
                0x21f4a848       0x20 arch/arm/cpu/arm926ejs/start.o
 .rel.text.do_imgextract
                0x21f4a868       0x90 arch/arm/cpu/arm926ejs/start.o
 .rel.text.lcd_set_flush_dcache
                0x00000000        0x0 arch/arm/cpu/arm926ejs/start.o
 .rel.text.lcd_get_size
                0x21f4a8f8        0x8 arch/arm/cpu/arm926ejs/start.o
 .rel.text.lcd_getfgcolor
                0x21f4a900        0x8 arch/arm/cpu/arm926ejs/start.o
 .rel.text.lcd_getbgcolor
                0x21f4a908        0x8 arch/arm/cpu/arm926ejs/start.o
 .rel.text.lcd_get_pixel_width
                0x00000000        0x0 arch/arm/cpu/arm926ejs/start.o
 .rel.text.lcd_get_pixel_height
                0x00000000        0x0 arch/arm/cpu/arm926ejs/start.o
 .rel.text.lcd_logo_set_cmap
                0x21f4a910        0x8 arch/arm/cpu/arm926ejs/start.o
 .rel.text.lcd_sync
                0x21f4a918       0x10 arch/arm/cpu/arm926ejs/start.o
 .rel.text.lcd_logo_plot
                0x21f4a928       0x38 arch/arm/cpu/arm926ejs/start.o
 .rel.text.lcd_clear
                0x21f4a960       0x38 arch/arm/cpu/arm926ejs/start.o
 .rel.text.drv_lcd_init
                0x21f4a998       0x30 arch/arm/cpu/arm926ejs/start.o
 .rel.text.lcd_set_col
                0x21f4a9c8        0x8 arch/arm/cpu/arm926ejs/start.o
 .rel.text.lcd_set_row
                0x21f4a9d0        0x8 arch/arm/cpu/arm926ejs/start.o
 .rel.text.lcd_position_cursor
                0x21f4a9d8        0x8 arch/arm/cpu/arm926ejs/start.o
 .rel.text.lcd_get_screen_rows
                0x00000000        0x0 arch/arm/cpu/arm926ejs/start.o
 .rel.text.lcd_get_screen_columns
                0x00000000        0x0 arch/arm/cpu/arm926ejs/start.o
 .rel.text.lcd_putc
                0x21f4a9e0       0x40 arch/arm/cpu/arm926ejs/start.o
 .rel.text.lcd_puts
                0x21f4aa20        0x8 arch/arm/cpu/arm926ejs/start.o
 .rel.text.lcd_init_console
                0x21f4aa28       0x20 arch/arm/cpu/arm926ejs/start.o
 .rel.text.lcd_putc_xy0
                0x21f4aa48        0x8 arch/arm/cpu/arm926ejs/start.o
 .rel.text.get_env_id
                0x21f4aa50        0x8 arch/arm/cpu/arm926ejs/start.o
 .rel.text.do_env_delete
                0x21f4aa58       0x10 arch/arm/cpu/arm926ejs/start.o
 .rel.text.do_env_exists
                0x21f4aa68        0x8 arch/arm/cpu/arm926ejs/start.o
 .rel.text._do_env_set
                0x21f4aa70       0x30 arch/arm/cpu/arm926ejs/start.o
 .rel.text.setenv
                0x21f4aaa0        0x8 arch/arm/cpu/arm926ejs/start.o
 .rel.text.env_print
                0x21f4aaa8       0x18 arch/arm/cpu/arm926ejs/start.o
 .rel.text.do_env_print
                0x21f4aac0       0x10 arch/arm/cpu/arm926ejs/start.o
 .rel.text.setenv_hex
                0x21f4aad0        0x8 arch/arm/cpu/arm926ejs/start.o
 .rel.text.do_env
                0x21f4aad8        0x8 arch/arm/cpu/arm926ejs/start.o
 .rel.text.do_env_import
                0x21f4aae0       0x58 arch/arm/cpu/arm926ejs/start.o
 .rel.text.do_env_export
                0x21f4ab38       0x40 arch/arm/cpu/arm926ejs/start.o
 .rel.text.do_env_default
                0x21f4ab78        0x8 arch/arm/cpu/arm926ejs/start.o
 .rel.text.do_env_save
                0x21f4ab80       0x10 arch/arm/cpu/arm926ejs/start.o
 .rel.text.getenv_f
                0x21f4ab90        0x8 arch/arm/cpu/arm926ejs/start.o
 .rel.text.getenv
                0x21f4ab98        0x8 arch/arm/cpu/arm926ejs/start.o
 .rel.text.do_env_edit
                0x21f4aba0       0x10 arch/arm/cpu/arm926ejs/start.o
 .rel.text.env_get_addr
                0x21f4abb0        0x8 arch/arm/cpu/arm926ejs/start.o
 .rel.text.env_get_char
                0x21f4abb8        0x8 arch/arm/cpu/arm926ejs/start.o
 .rel.text.env_complete
                0x21f4abc0       0x18 arch/arm/cpu/arm926ejs/start.o
 .rel.text.env_export
                0x21f4abd8       0x28 arch/arm/cpu/arm926ejs/start.o
 .rel.text.set_default_vars
                0x21f4ac00       0x10 arch/arm/cpu/arm926ejs/start.o
 .rel.text.set_default_env
                0x21f4ac10       0x40 arch/arm/cpu/arm926ejs/start.o
 .rel.text.env_relocate
                0x21f4ac50        0x8 arch/arm/cpu/arm926ejs/start.o
 .rel.text.env_import
                0x21f4ac58       0x38 arch/arm/cpu/arm926ejs/start.o
 .rel.text.console_setfile
                0x21f4ac90       0x30 arch/arm/cpu/arm926ejs/start.o
 .rel.text.fgetc
                0x21f4acc0        0x8 arch/arm/cpu/arm926ejs/start.o
 .rel.text.ftstc
                0x21f4acc8        0x8 arch/arm/cpu/arm926ejs/start.o
 .rel.text.fputc
                0x21f4acd0        0x8 arch/arm/cpu/arm926ejs/start.o
 .rel.text.fputs
                0x21f4acd8        0x8 arch/arm/cpu/arm926ejs/start.o
 .rel.text.disable_ctrlc
                0x00000000        0x0 arch/arm/cpu/arm926ejs/start.o
 .rel.text.had_ctrlc
                0x21f4ace0        0x8 arch/arm/cpu/arm926ejs/start.o
 .rel.text.clear_ctrlc
                0x21f4ace8        0x8 arch/arm/cpu/arm926ejs/start.o
 .rel.text.ctrlc
                0x21f4acf0       0x10 arch/arm/cpu/arm926ejs/start.o
 .rel.text.confirm_yesno
                0x21f4ad00       0x20 arch/arm/cpu/arm926ejs/start.o
 .rel.text.on_console
                0x21f4ad20       0x20 arch/arm/cpu/arm926ejs/start.o
 .rel.text.stdio_print_current_devices
                0x21f4ad40       0x40 arch/arm/cpu/arm926ejs/start.o
 .rel.text.console_init_r
                0x21f4ad80       0x48 arch/arm/cpu/arm926ejs/start.o
 .rel.text.mallopt
                0x00000000        0x0 arch/arm/cpu/arm926ejs/start.o
 .rel.text.mem_malloc_init
                0x21f4adc8       0x18 arch/arm/cpu/arm926ejs/start.o
 .rel.text.sbrk
                0x21f4ade0       0x18 arch/arm/cpu/arm926ejs/start.o
 .rel.text.malloc_trim
                0x21f4adf8       0x18 arch/arm/cpu/arm926ejs/start.o
 .rel.text.free
                0x21f4ae10       0x20 arch/arm/cpu/arm926ejs/start.o
 .rel.text.malloc
                0x21f4ae30       0x48 arch/arm/cpu/arm926ejs/start.o
 .rel.text.calloc
                0x21f4ae78        0x8 arch/arm/cpu/arm926ejs/start.o
 .rel.text.realloc
                0x21f4ae80        0x8 arch/arm/cpu/arm926ejs/start.o
 .rel.text.genimg_get_os_name
                0x21f4ae88       0x10 arch/arm/cpu/arm926ejs/start.o
 .rel.text.genimg_get_arch_name
                0x21f4ae98       0x10 arch/arm/cpu/arm926ejs/start.o
 .rel.text.genimg_get_type_name
                0x21f4aea8       0x10 arch/arm/cpu/arm926ejs/start.o
 .rel.text.genimg_get_comp_name
                0x21f4aeb8       0x10 arch/arm/cpu/arm926ejs/start.o
 .rel.text.on_loadaddr
                0x21f4aec8        0x8 arch/arm/cpu/arm926ejs/start.o
 .rel.text.genimg_get_kernel_addr_fit
                0x21f4aed0        0x8 arch/arm/cpu/arm926ejs/start.o
 .rel.text.getenv_bootm_low
                0x21f4aed8        0x8 arch/arm/cpu/arm926ejs/start.o
 .rel.text.genimg_get_comp_id
                0x00000000        0x0 arch/arm/cpu/arm926ejs/start.o
 .rel.text.genimg_get_type_id
                0x00000000        0x0 arch/arm/cpu/arm926ejs/start.o
 .rel.text.genimg_get_arch_id
                0x00000000        0x0 arch/arm/cpu/arm926ejs/start.o
 .rel.text.genimg_get_os_id
                0x00000000        0x0 arch/arm/cpu/arm926ejs/start.o
 .rel.text.genimg_get_image
                0x21f4aee0        0x8 arch/arm/cpu/arm926ejs/start.o
 .rel.text.genimg_print_size
                0x21f4aee8       0x10 arch/arm/cpu/arm926ejs/start.o
 .rel.text.image_print_contents
                0x21f4aef8       0x50 arch/arm/cpu/arm926ejs/start.o
 .rel.text.boot_ramdisk_high
                0x21f4af48       0x20 arch/arm/cpu/arm926ejs/start.o
 .rel.text.getenv_bootm_size
                0x21f4af68       0x10 arch/arm/cpu/arm926ejs/start.o
 .rel.text.getenv_bootm_mapsize
                0x21f4af78        0x8 arch/arm/cpu/arm926ejs/start.o
 .rel.text.boot_get_ramdisk
                0x21f4af80       0x50 arch/arm/cpu/arm926ejs/start.o
 .rel.text.image_setup_libfdt
                0x21f4afd0       0x18 arch/arm/cpu/arm926ejs/start.o
 .rel.text.fdt_error
                0x21f4afe8       0x10 arch/arm/cpu/arm926ejs/start.o
 .rel.text.boot_get_fdt
                0x21f4aff8       0x80 arch/arm/cpu/arm926ejs/start.o
 .rel.text.boot_relocate_fdt
                0x21f4b078       0x40 arch/arm/cpu/arm926ejs/start.o
 .rel.text.boot_fdt_add_mem_rsv_regions
                0x21f4b0b8        0x8 arch/arm/cpu/arm926ejs/start.o
 .rel.text.stdio_get_list
                0x21f4b0c0        0x8 arch/arm/cpu/arm926ejs/start.o
 .rel.text.stdio_init_tables
                0x21f4b0c8        0x8 arch/arm/cpu/arm926ejs/start.o
 .rel.text.stdio_register_dev
                0x21f4b0d0        0x8 arch/arm/cpu/arm926ejs/start.o
 .rel.text.stdio_add_devices
                0x21f4b0d8       0x28 arch/arm/cpu/arm926ejs/start.o
 .rel.text.stdio_get_by_name
                0x21f4b100       0x10 arch/arm/cpu/arm926ejs/start.o
 .rel.text.cli_simple_loop
                0x00000000        0x0 arch/arm/cpu/arm926ejs/start.o
 .rel.text.cli_simple_process_macros
                0x00000000        0x0 arch/arm/cpu/arm926ejs/start.o
 .rel.text.cli_simple_parse_line
                0x00000000        0x0 arch/arm/cpu/arm926ejs/start.o
 .rel.text.cli_simple_run_command
                0x00000000        0x0 arch/arm/cpu/arm926ejs/start.o
 .rel.text.do_run
                0x21f4b110        0x8 arch/arm/cpu/arm926ejs/start.o
 .rel.text.delete_char
                0x21f4b118       0x10 arch/arm/cpu/arm926ejs/start.o
 .rel.text.cread_add_char
                0x21f4b128        0x8 arch/arm/cpu/arm926ejs/start.o
 .rel.text.cli_readline_into_buffer
                0x21f4b130       0xb0 arch/arm/cpu/arm926ejs/start.o
 .rel.text.cli_readline
                0x21f4b1e0        0x8 arch/arm/cpu/arm926ejs/start.o
 .rel.text.cmd_process_error
                0x00000000        0x0 arch/arm/cpu/arm926ejs/start.o
 .rel.text.cmd_usage
                0x21f4b1e8       0x18 arch/arm/cpu/arm926ejs/start.o
 .rel.text.var_complete
                0x21f4b200       0x10 arch/arm/cpu/arm926ejs/start.o
 .rel.text.find_cmd
                0x21f4b210       0x10 arch/arm/cpu/arm926ejs/start.o
 .rel.text.cmd_process
                0x21f4b220       0x18 arch/arm/cpu/arm926ejs/start.o
 .rel.text.cmd_auto_complete
                0x21f4b238       0x40 arch/arm/cpu/arm926ejs/start.o
 .rel.text._do_help
                0x21f4b278       0x10 arch/arm/cpu/arm926ejs/start.o
 .rel.text.srec_decode
                0x00000000        0x0 arch/arm/cpu/arm926ejs/start.o
 .rel.text.xyzModem_error
                0x21f4b288       0x88 arch/arm/cpu/arm926ejs/start.o
 .rel.text.xyzModem_flush
                0x21f4b310        0x8 arch/arm/cpu/arm926ejs/start.o
 .rel.text.xyzModem_stream_terminate
                0x21f4b318        0x8 arch/arm/cpu/arm926ejs/start.o
 .rel.text.xyzModem_stream_close
                0x21f4b320       0x20 arch/arm/cpu/arm926ejs/start.o
 .rel.text.xyzModem_get_hdr
                0x21f4b340       0x28 arch/arm/cpu/arm926ejs/start.o
 .rel.text.xyzModem_stream_read
                0x21f4b368        0x8 arch/arm/cpu/arm926ejs/start.o
 .rel.text.xyzModem_stream_open
                0x21f4b370       0x10 arch/arm/cpu/arm926ejs/start.o
 .rel.text.common_diskboot
                0x21f4b380       0x28 arch/arm/cpu/arm926ejs/start.o
 .rel.rodata.boot_os
                0x21f4b3a8       0x30 arch/arm/cpu/arm926ejs/start.o
 .rel.rodata.location.5460
                0x21f4b3d8       0x10 arch/arm/cpu/arm926ejs/start.o
 .rel.rodata.op_table
                0x21f4b3e8       0x68 arch/arm/cpu/arm926ejs/start.o
 .rel.rodata.op_adv
                0x21f4b450       0x80 arch/arm/cpu/arm926ejs/start.o
 .rel.rodata.uimage_comp
                0x21f4b4d0       0x60 arch/arm/cpu/arm926ejs/start.o
 .rel.rodata.uimage_os
                0x21f4b530       0x88 arch/arm/cpu/arm926ejs/start.o
 .rel.rodata.uimage_arch
                0x21f4b5b8      0x188 arch/arm/cpu/arm926ejs/start.o
 .rel.rodata.uimage_type
                0x21f4b740      0x168 arch/arm/cpu/arm926ejs/start.o
 .rel.data.hash_algo
                0x00000000        0x0 arch/arm/cpu/arm926ejs/start.o
 .rel.data.reserved_list
                0x21f4b8a8       0x58 arch/arm/cpu/arm926ejs/start.o
 .rel.u_boot_list_2_cmd_2_showvar
                0x21f4b900       0x20 arch/arm/cpu/arm926ejs/start.o
 .rel.data.init_sequence_f
                0x21f4b920      0x118 arch/arm/cpu/arm926ejs/start.o
 .rel.data.init_sequence_r
                0x21f4ba38       0xc8 arch/arm/cpu/arm926ejs/start.o
 .rel.u_boot_list_2_cmd_2_go
                0x21f4bb00       0x20 arch/arm/cpu/arm926ejs/start.o
 .rel.u_boot_list_2_cmd_2_reset
                0x21f4bb20       0x20 arch/arm/cpu/arm926ejs/start.o
 .rel.u_boot_list_2_cmd_2_bootz
                0x21f4bb40       0x20 arch/arm/cpu/arm926ejs/start.o
 .rel.u_boot_list_2_cmd_2_boot
                0x21f4bb60       0x20 arch/arm/cpu/arm926ejs/start.o
 .rel.u_boot_list_2_cmd_2_bootd
                0x21f4bb80       0x20 arch/arm/cpu/arm926ejs/start.o
 .rel.u_boot_list_2_cmd_2_bootm
                0x21f4bba0       0x20 arch/arm/cpu/arm926ejs/start.o
 .rel.data.cmd_bootm_sub
                0x21f4bbc0       0xd8 arch/arm/cpu/arm926ejs/start.o
 .rel.u_boot_list_2_cmd_2_question_mark
                0x21f4bc98       0x20 arch/arm/cpu/arm926ejs/start.o
 .rel.u_boot_list_2_cmd_2_help
                0x21f4bcb8       0x20 arch/arm/cpu/arm926ejs/start.o
 .rel.u_boot_list_2_cmd_2_version
                0x21f4bcd8       0x20 arch/arm/cpu/arm926ejs/start.o
 .rel.u_boot_list_2_env_clbk_2_callbacks
                0x21f4bcf8       0x10 arch/arm/cpu/arm926ejs/start.o
 .rel.u_boot_list_2_env_clbk_2_flags
                0x21f4bd08       0x10 arch/arm/cpu/arm926ejs/start.o
 .rel.data.env_name_spec
                0x21f4bd18        0x8 arch/arm/cpu/arm926ejs/start.o
 .rel.u_boot_list_2_cmd_2_coninfo
                0x21f4bd20       0x20 arch/arm/cpu/arm926ejs/start.o
 .rel.u_boot_list_2_cmd_2_echo
                0x21f4bd40       0x20 arch/arm/cpu/arm926ejs/start.o
 .rel.u_boot_list_2_cmd_2_exit
                0x21f4bd60       0x20 arch/arm/cpu/arm926ejs/start.o
 .rel.u_boot_list_2_cmd_2_fatinfo
                0x21f4bd80       0x20 arch/arm/cpu/arm926ejs/start.o
 .rel.u_boot_list_2_cmd_2_fatsize
                0x21f4bda0       0x20 arch/arm/cpu/arm926ejs/start.o
 .rel.u_boot_list_2_cmd_2_fatls
                0x21f4bdc0       0x20 arch/arm/cpu/arm926ejs/start.o
 .rel.u_boot_list_2_cmd_2_fatload
                0x21f4bde0       0x20 arch/arm/cpu/arm926ejs/start.o
 .rel.u_boot_list_2_cmd_2_fdt
                0x21f4be00       0x20 arch/arm/cpu/arm926ejs/start.o
 .rel.data.of_busses
                0x00000000        0x0 arch/arm/cpu/arm926ejs/start.o
 .rel.u_boot_list_2_cmd_2_protect
                0x21f4be20       0x20 arch/arm/cpu/arm926ejs/start.o
 .rel.u_boot_list_2_cmd_2_erase
                0x21f4be40       0x20 arch/arm/cpu/arm926ejs/start.o
 .rel.u_boot_list_2_cmd_2_flinfo
                0x21f4be60       0x20 arch/arm/cpu/arm926ejs/start.o
 .rel.u_boot_list_2_cmd_2_itest
                0x21f4be80       0x20 arch/arm/cpu/arm926ejs/start.o
 .rel.u_boot_list_2_cmd_2_loadb
                0x21f4bea0       0x20 arch/arm/cpu/arm926ejs/start.o
 .rel.u_boot_list_2_cmd_2_loadx
                0x21f4bec0       0x20 arch/arm/cpu/arm926ejs/start.o
 .rel.u_boot_list_2_cmd_2_loady
                0x21f4bee0       0x20 arch/arm/cpu/arm926ejs/start.o
 .rel.u_boot_list_2_cmd_2_base
                0x21f4bf00       0x20 arch/arm/cpu/arm926ejs/start.o
 .rel.u_boot_list_2_cmd_2_mm
                0x21f4bf20       0x20 arch/arm/cpu/arm926ejs/start.o
 .rel.u_boot_list_2_cmd_2_nm
                0x21f4bf40       0x20 arch/arm/cpu/arm926ejs/start.o
 .rel.u_boot_list_2_cmd_2_cmp
                0x21f4bf60       0x20 arch/arm/cpu/arm926ejs/start.o
 .rel.u_boot_list_2_cmd_2_loop
                0x21f4bf80       0x20 arch/arm/cpu/arm926ejs/start.o
 .rel.u_boot_list_2_cmd_2_cp
                0x21f4bfa0       0x20 arch/arm/cpu/arm926ejs/start.o
 .rel.u_boot_list_2_cmd_2_crc32
                0x21f4bfc0       0x20 arch/arm/cpu/arm926ejs/start.o
 .rel.u_boot_list_2_cmd_2_md
                0x21f4bfe0       0x20 arch/arm/cpu/arm926ejs/start.o
 .rel.u_boot_list_2_cmd_2_mw
                0x21f4c000       0x20 arch/arm/cpu/arm926ejs/start.o
 .rel.u_boot_list_2_cmd_2_sleep
                0x21f4c020       0x20 arch/arm/cpu/arm926ejs/start.o
 .rel.u_boot_list_2_cmd_2_mmcinfo
                0x21f4c040       0x20 arch/arm/cpu/arm926ejs/start.o
 .rel.data.cmd_mmc
                0x21f4c060      0x140 arch/arm/cpu/arm926ejs/start.o
 .rel.u_boot_list_2_cmd_2_mmc
                0x21f4c1a0       0x20 arch/arm/cpu/arm926ejs/start.o
 .rel.u_boot_list_2_cmd_2_nboot
                0x21f4c1c0       0x20 arch/arm/cpu/arm926ejs/start.o
 .rel.u_boot_list_2_cmd_2_nand
                0x21f4c1e0       0x20 arch/arm/cpu/arm926ejs/start.o
 .rel.u_boot_list_2_cmd_2_ping
                0x21f4c200       0x20 arch/arm/cpu/arm926ejs/start.o
 .rel.u_boot_list_2_cmd_2_dhcp
                0x21f4c220       0x20 arch/arm/cpu/arm926ejs/start.o
 .rel.u_boot_list_2_cmd_2_bootp
                0x21f4c240       0x20 arch/arm/cpu/arm926ejs/start.o
 .rel.u_boot_list_2_cmd_2_tftpboot
                0x21f4c260       0x20 arch/arm/cpu/arm926ejs/start.o
 .rel.u_boot_list_2_cmd_2_nfs
                0x21f4c280       0x20 arch/arm/cpu/arm926ejs/start.o
 .rel.u_boot_list_2_cmd_2_test
                0x21f4c2a0       0x20 arch/arm/cpu/arm926ejs/start.o
 .rel.u_boot_list_2_cmd_2_true
                0x21f4c2c0       0x18 arch/arm/cpu/arm926ejs/start.o
 .rel.u_boot_list_2_cmd_2_false
                0x21f4c2d8       0x18 arch/arm/cpu/arm926ejs/start.o
 .rel.u_boot_list_2_cmd_2_usb
                0x21f4c2f0       0x20 arch/arm/cpu/arm926ejs/start.o
 .rel.u_boot_list_2_cmd_2_usbboot
                0x21f4c310       0x20 arch/arm/cpu/arm926ejs/start.o
 .rel.u_boot_list_2_cmd_2_imxtract
                0x21f4c330       0x20 arch/arm/cpu/arm926ejs/start.o
 .rel.u_boot_list_2_cmd_2_cls
                0x21f4c350       0x20 arch/arm/cpu/arm926ejs/start.o
 .rel.u_boot_list_2_cmd_2_lcdputs
                0x21f4c370       0x20 arch/arm/cpu/arm926ejs/start.o
 .rel.u_boot_list_2_cmd_2_setcurs
                0x21f4c390       0x20 arch/arm/cpu/arm926ejs/start.o
 .rel.u_boot_list_2_cmd_2_setenv
                0x21f4c3b0       0x28 arch/arm/cpu/arm926ejs/start.o
 .rel.u_boot_list_2_cmd_2_env
                0x21f4c3d8       0x20 arch/arm/cpu/arm926ejs/start.o
 .rel.u_boot_list_2_cmd_2_saveenv
                0x21f4c3f8       0x20 arch/arm/cpu/arm926ejs/start.o
 .rel.data.cmd_env_sub
                0x21f4c418      0x140 arch/arm/cpu/arm926ejs/start.o
 .rel.u_boot_list_2_cmd_2_printenv
                0x21f4c558       0x28 arch/arm/cpu/arm926ejs/start.o
 .rel.u_boot_list_2_cmd_2_editenv
                0x21f4c580       0x28 arch/arm/cpu/arm926ejs/start.o
 .rel.u_boot_list_2_cmd_2_run
                0x21f4c5a8       0x28 arch/arm/cpu/arm926ejs/start.o
 .rel.data.env_htab
                0x21f4c5d0        0x8 arch/arm/cpu/arm926ejs/start.o
 .rel.u_boot_list_2_env_clbk_2_console
                0x21f4c5d8       0x10 arch/arm/cpu/arm926ejs/start.o
 .rel.data.av_  0x21f4c5e8      0x800 arch/arm/cpu/arm926ejs/start.o
 .rel.u_boot_list_2_env_clbk_2_loadaddr
                0x21f4cde8       0x10 arch/arm/cpu/arm926ejs/start.o
 .rel.data.stdio_names
                0x21f4cdf8       0x18 arch/arm/cpu/arm926ejs/start.o
 .rel.text.get_dev_hwpart
                0x21f4ce10        0x8 arch/arm/cpu/arm926ejs/start.o
 .rel.text.get_device
                0x21f4ce18       0x18 arch/arm/cpu/arm926ejs/start.o
 .rel.text.get_device_and_partition
                0x21f4ce30       0x70 arch/arm/cpu/arm926ejs/start.o
 .rel.text.print_part
                0x21f4cea0       0xb0 arch/arm/cpu/arm926ejs/start.o
 .rel.text.dev_print
                0x21f4cf50      0x110 arch/arm/cpu/arm926ejs/start.o
 .rel.text.test_block_type
                0x21f4d060       0x10 arch/arm/cpu/arm926ejs/start.o
 .rel.text.get_partition_info_extended
                0x21f4d070       0x80 arch/arm/cpu/arm926ejs/start.o
 .rel.text.print_partition_extended
                0x21f4d0f0       0x30 arch/arm/cpu/arm926ejs/start.o
 .rel.text.print_part_dos
                0x21f4d120        0x8 arch/arm/cpu/arm926ejs/start.o
 .rel.rodata.block_drvr
                0x21f4d128       0x28 arch/arm/cpu/arm926ejs/start.o
 .rel.text.configuration_get_cmap
                0x21f4d150        0x8 arch/arm/cpu/arm926ejs/start.o
 .rel.text.lcd_setcolreg
                0x21f4d158        0x8 arch/arm/cpu/arm926ejs/start.o
 .rel.text.calc_fbsize
                0x00000000        0x0 arch/arm/cpu/arm926ejs/start.o
 .rel.text.lcd_ctrl_init
                0x21f4d160        0x8 arch/arm/cpu/arm926ejs/start.o
 .rel.text.input_stdio_register
                0x00000000        0x0 arch/arm/cpu/arm926ejs/start.o
 .rel.text.input_init
                0x00000000        0x0 arch/arm/cpu/arm926ejs/start.o
 .rel.text.input_send_keycodes
                0x00000000        0x0 arch/arm/cpu/arm926ejs/start.o
 .rel.rodata.kbd_to_ansi364
                0x00000000        0x0 arch/arm/cpu/arm926ejs/start.o
 .rel.text.at91_pio_get_port
                0x21f4d168       0x30 arch/arm/cpu/arm926ejs/start.o
 .rel.text.get_mmc_num
                0x21f4d198        0x8 arch/arm/cpu/arm926ejs/start.o
 .rel.text.mmc_register
                0x00000000        0x0 arch/arm/cpu/arm926ejs/start.o
 .rel.text.find_mmc_device
                0x21f4d1a0       0x10 arch/arm/cpu/arm926ejs/start.o
 .rel.text.mmc_bread
                0x21f4d1b0       0x10 arch/arm/cpu/arm926ejs/start.o
 .rel.text.print_mmc_devices
                0x21f4d1c0       0x40 arch/arm/cpu/arm926ejs/start.o
 .rel.text.mmc_start_init
                0x21f4d200       0x10 arch/arm/cpu/arm926ejs/start.o
 .rel.text.mmc_initialize
                0x21f4d210       0x10 arch/arm/cpu/arm926ejs/start.o
 .rel.text.mmc_send_status
                0x21f4d220       0x10 arch/arm/cpu/arm926ejs/start.o
 .rel.text.mmc_hwpart_config
                0x21f4d230       0x48 arch/arm/cpu/arm926ejs/start.o
 .rel.text.mmc_set_capacity
                0x21f4d278       0x40 arch/arm/cpu/arm926ejs/start.o
 .rel.text.mmc_select_hwpart
                0x21f4d2b8        0x8 arch/arm/cpu/arm926ejs/start.o
 .rel.text.mmc_startup
                0x21f4d2c0       0xa8 arch/arm/cpu/arm926ejs/start.o
 .rel.text.mmc_create
                0x21f4d368       0x28 arch/arm/cpu/arm926ejs/start.o
 .rel.text.atmel_mci_init
                0x21f4d390       0x10 arch/arm/cpu/arm926ejs/start.o
 .rel.text.mci_set_mode
                0x21f4d3a0       0x10 arch/arm/cpu/arm926ejs/start.o
 .rel.text.dump_cmd
                0x21f4d3b0        0x8 arch/arm/cpu/arm926ejs/start.o
 .rel.text.mci_send_cmd
                0x21f4d3b8       0x48 arch/arm/cpu/arm926ejs/start.o
 .rel.text.mmc_bwrite
                0x21f4d400       0x18 arch/arm/cpu/arm926ejs/start.o
 .rel.text.mmc_berase
                0x21f4d418       0x10 arch/arm/cpu/arm926ejs/start.o
 .rel.rodata.atmel_mci_ops
                0x21f4d428       0x18 arch/arm/cpu/arm926ejs/start.o
 .rel.text.__mtd_next_device
                0x00000000        0x0 arch/arm/cpu/arm926ejs/start.o
 .rel.text.get_mtd_device
                0x00000000        0x0 arch/arm/cpu/arm926ejs/start.o
 .rel.text.__put_mtd_device
                0x00000000        0x0 arch/arm/cpu/arm926ejs/start.o
 .rel.text.del_mtd_device
                0x00000000        0x0 arch/arm/cpu/arm926ejs/start.o
 .rel.text.add_mtd_device
                0x00000000        0x0 arch/arm/cpu/arm926ejs/start.o
 .rel.text.AT91F_DataflashSelect
                0x21f4d440        0x8 arch/arm/cpu/arm926ejs/start.o
 .rel.text.addr_dataflash
                0x21f4d448        0x8 arch/arm/cpu/arm926ejs/start.o
 .rel.text.dataflash_real_protect
                0x21f4d450       0x10 arch/arm/cpu/arm926ejs/start.o
 .rel.text.dataflash_perror
                0x21f4d460       0x38 arch/arm/cpu/arm926ejs/start.o
 .rel.text.dataflash_print_info
                0x21f4d498       0x60 arch/arm/cpu/arm926ejs/start.o
 .rel.text.write_dataflash
                0x21f4d4f8        0x8 arch/arm/cpu/arm926ejs/start.o
 .rel.text.read_dataflash
                0x21f4d500        0x8 arch/arm/cpu/arm926ejs/start.o
 .rel.text.AT91F_DataflashSetEnv
                0x00000000        0x0 arch/arm/cpu/arm926ejs/start.o
 .rel.text.AT91F_DataflashInit
                0x21f4d508       0x20 arch/arm/cpu/arm926ejs/start.o
 .rel.text.nand_init
                0x21f4d528       0x10 arch/arm/cpu/arm926ejs/start.o
 .rel.text.nand_register
                0x21f4d538       0x28 arch/arm/cpu/arm926ejs/start.o
 .rel.text.write_bbt
                0x21f4d560       0x40 arch/arm/cpu/arm926ejs/start.o
 .rel.text.verify_bbt_descr
                0x21f4d5a0       0x20 arch/arm/cpu/arm926ejs/start.o
 .rel.text.create_bbt
                0x21f4d5c0       0x20 arch/arm/cpu/arm926ejs/start.o
 .rel.text.nand_default_bbt
                0x21f4d5e0       0x28 arch/arm/cpu/arm926ejs/start.o
 .rel.text.nand_read_skip_bad
                0x21f4d608       0x28 arch/arm/cpu/arm926ejs/start.o
 .rel.text.nand_write_skip_bad
                0x21f4d630       0x28 arch/arm/cpu/arm926ejs/start.o
 .rel.text.nand_erase_opts
                0x21f4d658       0x48 arch/arm/cpu/arm926ejs/start.o
 .rel.text.nand_calculate_ecc
                0x21f4d6a0        0x8 arch/arm/cpu/arm926ejs/start.o
 .rel.text.nand_set_defaults
                0x21f4d6a8       0x88 arch/arm/cpu/arm926ejs/start.o
 .rel.text.nand_select_chip
                0x21f4d730       0x20 arch/arm/cpu/arm926ejs/start.o
 .rel.text.nand_scan_tail
                0x21f4d750      0x158 arch/arm/cpu/arm926ejs/start.o
 .rel.text.nand_fill_oob
                0x21f4d8a8       0x20 arch/arm/cpu/arm926ejs/start.o
 .rel.text.nand_default_block_markbad
                0x21f4d8c8        0x8 arch/arm/cpu/arm926ejs/start.o
 .rel.text.nand_transfer_oob
                0x21f4d8d0       0x20 arch/arm/cpu/arm926ejs/start.o
 .rel.text.nand_wait
                0x21f4d8f0       0x10 arch/arm/cpu/arm926ejs/start.o
 .rel.text.nand_scan_ident
                0x21f4d900       0x98 arch/arm/cpu/arm926ejs/start.o
 .rel.text.atmel_nand_chip_init
                0x21f4d998       0x20 arch/arm/cpu/arm926ejs/start.o
 .rel.text.board_nand_init
                0x21f4d9b8        0x8 arch/arm/cpu/arm926ejs/start.o
 .rel.data.bbt_mirror_descr
                0x21f4d9c0        0x8 arch/arm/cpu/arm926ejs/start.o
 .rel.data.bbt_main_no_oob_descr
                0x21f4d9c8        0x8 arch/arm/cpu/arm926ejs/start.o
 .rel.data.bbt_mirror_no_oob_descr
                0x21f4d9d0        0x8 arch/arm/cpu/arm926ejs/start.o
 .rel.data.bbt_main_descr
                0x21f4d9d8        0x8 arch/arm/cpu/arm926ejs/start.o
 .rel.data.nand_flash_ids
                0x21f4d9e0      0x288 arch/arm/cpu/arm926ejs/start.o
 .rel.data.nand_manuf_ids
                0x21f4dc68       0x70 arch/arm/cpu/arm926ejs/start.o
 .rel.text.macb_eth_initialize
                0x21f4dcd8       0x40 arch/arm/cpu/arm926ejs/start.o
 .rel.text.macb_recv
                0x21f4dd18        0x8 arch/arm/cpu/arm926ejs/start.o
 .rel.text.macb_send
                0x21f4dd20       0x18 arch/arm/cpu/arm926ejs/start.o
 .rel.text.macb_init
                0x21f4dd38       0x60 arch/arm/cpu/arm926ejs/start.o
 .rel.text.serial_register
                0x21f4dd98        0x8 arch/arm/cpu/arm926ejs/start.o
 .rel.text.serial_reinit_all
                0x00000000        0x0 arch/arm/cpu/arm926ejs/start.o
 .rel.text.get_current
                0x21f4dda0       0x10 arch/arm/cpu/arm926ejs/start.o
 .rel.text.on_baudrate
                0x21f4ddb0       0x20 arch/arm/cpu/arm926ejs/start.o
 .rel.text.serial_assign
                0x21f4ddd0       0x10 arch/arm/cpu/arm926ejs/start.o
 .rel.text.serial_stdio_init
                0x21f4dde0       0x38 arch/arm/cpu/arm926ejs/start.o
 .rel.text.default_serial_console
                0x21f4de18        0x8 arch/arm/cpu/arm926ejs/start.o
 .rel.text.atmel_serial_initialize
                0x21f4de20        0x8 arch/arm/cpu/arm926ejs/start.o
 .rel.u_boot_list_2_env_clbk_2_baudrate
                0x21f4de28       0x10 arch/arm/cpu/arm926ejs/start.o
 .rel.data.atmel_serial_drv
                0x21f4de38       0x30 arch/arm/cpu/arm926ejs/start.o
 .rel.text.spi_set_wordlen
                0x00000000        0x0 arch/arm/cpu/arm926ejs/start.o
 .rel.text.AT91F_SpiEnable
                0x21f4de68       0x20 arch/arm/cpu/arm926ejs/start.o
 .rel.text.AT91F_SpiWrite
                0x21f4de88        0x8 arch/arm/cpu/arm926ejs/start.o
 .rel.text.td_fill
                0x21f4de90        0x8 arch/arm/cpu/arm926ejs/start.o
 .rel.text.td_submit_job
                0x21f4de98        0x8 arch/arm/cpu/arm926ejs/start.o
 .rel.text.hc_reset
                0x21f4dea0       0x10 arch/arm/cpu/arm926ejs/start.o
 .rel.text.usb_lowlevel_stop
                0x21f4deb0       0x10 arch/arm/cpu/arm926ejs/start.o
 .rel.text.usb_lowlevel_init
                0x21f4dec0       0x48 arch/arm/cpu/arm926ejs/start.o
 .rel.text.sohci_submit_job
                0x21f4df08       0x40 arch/arm/cpu/arm926ejs/start.o
 .rel.text.submit_common_msg
                0x21f4df48       0x58 arch/arm/cpu/arm926ejs/start.o
 .rel.text.submit_control_msg
                0x21f4dfa0      0x110 arch/arm/cpu/arm926ejs/start.o
 .rel.rodata.cc_to_string
                0x21f4e0b0       0x80 arch/arm/cpu/arm926ejs/start.o
 .rel.text.fs_get_info
                0x21f4e130        0x8 arch/arm/cpu/arm926ejs/start.o
 .rel.text.fs_close
                0x21f4e138        0x8 arch/arm/cpu/arm926ejs/start.o
 .rel.text.fs_uuid
                0x00000000        0x0 arch/arm/cpu/arm926ejs/start.o
 .rel.text.fs_ls
                0x21f4e140        0x8 arch/arm/cpu/arm926ejs/start.o
 .rel.text.fs_exists
                0x21f4e148        0x8 arch/arm/cpu/arm926ejs/start.o
 .rel.text.fs_size
                0x21f4e150        0x8 arch/arm/cpu/arm926ejs/start.o
 .rel.text.fs_probe_unsupported
                0x21f4e158        0x8 arch/arm/cpu/arm926ejs/start.o
 .rel.text.fs_write
                0x00000000        0x0 arch/arm/cpu/arm926ejs/start.o
 .rel.text.fs_read
                0x21f4e160       0x10 arch/arm/cpu/arm926ejs/start.o
 .rel.text.fs_set_blk_dev
                0x21f4e170       0x28 arch/arm/cpu/arm926ejs/start.o
 .rel.text.do_fs_type
                0x00000000        0x0 arch/arm/cpu/arm926ejs/start.o
 .rel.text.do_fs_uuid
                0x00000000        0x0 arch/arm/cpu/arm926ejs/start.o
 .rel.text.do_save
                0x00000000        0x0 arch/arm/cpu/arm926ejs/start.o
 .rel.text.do_ls
                0x21f4e198        0x8 arch/arm/cpu/arm926ejs/start.o
 .rel.text.do_load
                0x21f4e1a0       0x48 arch/arm/cpu/arm926ejs/start.o
 .rel.text.do_size
                0x21f4e1e8        0x8 arch/arm/cpu/arm926ejs/start.o
 .rel.text.downcase
                0x21f4e1f0        0x8 arch/arm/cpu/arm926ejs/start.o
 .rel.text.disk_read
                0x21f4e1f8       0x10 arch/arm/cpu/arm926ejs/start.o
 .rel.text.get_fatent
                0x21f4e208       0x20 arch/arm/cpu/arm926ejs/start.o
 .rel.text.read_bootsectandvi
                0x21f4e228       0x20 arch/arm/cpu/arm926ejs/start.o
 .rel.text.file_fat_detectfs
                0x21f4e248       0xb0 arch/arm/cpu/arm926ejs/start.o
 .rel.text.get_cluster
                0x21f4e2f8        0x8 arch/arm/cpu/arm926ejs/start.o
 .rel.text.get_vfatname
                0x21f4e300       0x10 arch/arm/cpu/arm926ejs/start.o
 .rel.text.do_fat_read_at
                0x21f4e310       0x60 arch/arm/cpu/arm926ejs/start.o
 .rel.text.file_fat_read_at
                0x21f4e370        0x8 arch/arm/cpu/arm926ejs/start.o
 .rel.text.fat_read_file
                0x21f4e378        0x8 arch/arm/cpu/arm926ejs/start.o
 .rel.text.fat_set_blk_dev
                0x21f4e380       0x28 arch/arm/cpu/arm926ejs/start.o
 .rel.text.fat_register_device
                0x00000000        0x0 arch/arm/cpu/arm926ejs/start.o
 .rel.text.file_getfsname
                0x00000000        0x0 arch/arm/cpu/arm926ejs/start.o
 .rel.text.file_read
                0x00000000        0x0 arch/arm/cpu/arm926ejs/start.o
 .rel.text.file_ls
                0x00000000        0x0 arch/arm/cpu/arm926ejs/start.o
 .rel.text.file_detectfs
                0x00000000        0x0 arch/arm/cpu/arm926ejs/start.o
 .rel.text.file_cd
                0x00000000        0x0 arch/arm/cpu/arm926ejs/start.o
 .rel.rodata.filesystems
                0x00000000        0x0 arch/arm/cpu/arm926ejs/start.o
 .rel.data.fstypes
                0x21f4e3a8       0x90 arch/arm/cpu/arm926ejs/start.o
 .rel.text.inflate_fast
                0x21f4e438       0x18 arch/arm/cpu/arm926ejs/start.o
 .rel.text.inflate_table
                0x21f4e450       0x20 arch/arm/cpu/arm926ejs/start.o
 .rel.text.inflateInit2_
                0x21f4e470       0x10 arch/arm/cpu/arm926ejs/start.o
 .rel.text.inflate
                0x21f4e480      0x1a8 arch/arm/cpu/arm926ejs/start.o
 .rel.text.fdt_next_tag
                0x21f4e628       0x48 arch/arm/cpu/arm926ejs/start.o
 .rel.text.fdt_node_check_compatible
                0x00000000        0x0 arch/arm/cpu/arm926ejs/start.o
 .rel.text.fdt_get_phandle
                0x00000000        0x0 arch/arm/cpu/arm926ejs/start.o
 .rel.text.fdt_get_alias_namelen
                0x21f4e670        0x8 arch/arm/cpu/arm926ejs/start.o
 .rel.text.fdt_strerror
                0x21f4e678       0x20 arch/arm/cpu/arm926ejs/start.o
 .rel.text.fdt_find_regions
                0x00000000        0x0 arch/arm/cpu/arm926ejs/start.o
 .rel.text.fdt_create_empty_tree
                0x00000000        0x0 arch/arm/cpu/arm926ejs/start.o
 .rel.text.fdt_size_cells
                0x21f4e698        0x8 arch/arm/cpu/arm926ejs/start.o
 .rel.text.fdt_address_cells
                0x21f4e6a0        0x8 arch/arm/cpu/arm926ejs/start.o
 .rel.text.crc7
                0x00000000        0x0 arch/arm/cpu/arm926ejs/start.o
 .rel.text.cyg_crc16
                0x21f4e6a8        0x8 arch/arm/cpu/arm926ejs/start.o
 .rel.text.gzwrite_progress_finish
                0x00000000        0x0 arch/arm/cpu/arm926ejs/start.o
 .rel.text.gzwrite_progress
                0x00000000        0x0 arch/arm/cpu/arm926ejs/start.o
 .rel.text.zunzip
                0x21f4e6b0       0x28 arch/arm/cpu/arm926ejs/start.o
 .rel.text.gunzip
                0x21f4e6d8       0x10 arch/arm/cpu/arm926ejs/start.o
 .rel.text.gzwrite
                0x00000000        0x0 arch/arm/cpu/arm926ejs/start.o
 .rel.text.initcall_run_list
                0x21f4e6e8        0x8 arch/arm/cpu/arm926ejs/start.o
 .rel.text.lmb_alloc_base
                0x21f4e6f0        0x8 arch/arm/cpu/arm926ejs/start.o
 .rel.text.strmhz
                0x21f4e6f8       0x10 arch/arm/cpu/arm926ejs/start.o
 .rel.text.list_sort
                0x00000000        0x0 arch/arm/cpu/arm926ejs/start.o
 .rel.text.hdestroy_r
                0x21f4e708        0x8 arch/arm/cpu/arm926ejs/start.o
 .rel.text.hcreate_r
                0x21f4e710        0x8 arch/arm/cpu/arm926ejs/start.o
 .rel.text.match_string
                0x21f4e718        0x8 arch/arm/cpu/arm926ejs/start.o
 .rel.text.hexport_r
                0x21f4e720       0x18 arch/arm/cpu/arm926ejs/start.o
 .rel.text.hsearch_r
                0x21f4e738        0x8 arch/arm/cpu/arm926ejs/start.o
 .rel.text.hdelete_r
                0x21f4e740        0x8 arch/arm/cpu/arm926ejs/start.o
 .rel.text.himport_r
                0x21f4e748       0x20 arch/arm/cpu/arm926ejs/start.o
 .rel.text.hmatch_r
                0x21f4e768        0x8 arch/arm/cpu/arm926ejs/start.o
 .rel.text.print_size
                0x21f4e770       0x28 arch/arm/cpu/arm926ejs/start.o
 .rel.text.display_options
                0x21f4e798       0x10 arch/arm/cpu/arm926ejs/start.o
 .rel.text.print_buffer
                0x21f4e7a8       0x28 arch/arm/cpu/arm926ejs/start.o
 .rel.text.crc32_no_comp
                0x21f4e7d0        0x8 arch/arm/cpu/arm926ejs/start.o
 .rel.text.hang
                0x21f4e7d8        0x8 arch/arm/cpu/arm926ejs/start.o
 .rel.text.skip_spaces
                0x21f4e7e0        0x8 arch/arm/cpu/arm926ejs/start.o
 .rel.text.strim
                0x21f4e7e8        0x8 arch/arm/cpu/arm926ejs/start.o
 .rel.text.__tolower
                0x00000000        0x0 arch/arm/cpu/arm926ejs/start.o
 .rel.text.strtok
                0x00000000        0x0 arch/arm/cpu/arm926ejs/start.o
 .rel.text.__toupper
                0x21f4e7f0        0x8 arch/arm/cpu/arm926ejs/start.o
 .rel.text.simple_strtoul
                0x21f4e7f8        0x8 arch/arm/cpu/arm926ejs/start.o
 .rel.text.simple_strtoull
                0x21f4e800        0x8 arch/arm/cpu/arm926ejs/start.o
 .rel.text.simple_itoa
                0x21f4e808        0x8 arch/arm/cpu/arm926ejs/start.o
 .rel.text.__assert_fail
                0x00000000        0x0 arch/arm/cpu/arm926ejs/start.o
 .rel.text.string
                0x21f4e810        0x8 arch/arm/cpu/arm926ejs/start.o
 .rel.text.number
                0x21f4e818        0x8 arch/arm/cpu/arm926ejs/start.o
 .rel.text.vsprintf
                0x21f4e820       0x10 arch/arm/cpu/arm926ejs/start.o
 .rel.text.print_grouped_ull
                0x00000000        0x0 arch/arm/cpu/arm926ejs/start.o
 .rel.rodata.z_errmsg
                0x00000000        0x0 arch/arm/cpu/arm926ejs/start.o
 .rel.rodata.fdt_errtable
                0x21f4e830       0x58 arch/arm/cpu/arm926ejs/start.o
 .rel.data.current
                0x00000000        0x0 arch/arm/cpu/arm926ejs/start.o
 .rel.text.arp_init
                0x21f4e888       0x30 arch/arm/cpu/arm926ejs/start.o
 .rel.text.arp_receive
                0x21f4e8b8       0x40 arch/arm/cpu/arm926ejs/start.o
 .rel.text.arp_raw_request
                0x21f4e8f8       0x18 arch/arm/cpu/arm926ejs/start.o
 .rel.text.arp_request
                0x21f4e910       0x38 arch/arm/cpu/arm926ejs/start.o
 .rel.text.arp_timeout_check
                0x21f4e948       0x20 arch/arm/cpu/arm926ejs/start.o
 .rel.text.truncate_sz
                0x21f4e968        0x8 arch/arm/cpu/arm926ejs/start.o
 .rel.text.bootp_reset
                0x21f4e970       0x20 arch/arm/cpu/arm926ejs/start.o
 .rel.text.dhcp_process_options
                0x21f4e990       0x60 arch/arm/cpu/arm926ejs/start.o
 .rel.text.bootp_request
                0x21f4e9f0       0x60 arch/arm/cpu/arm926ejs/start.o
 .rel.text.dhcp_handler
                0x21f4ea50       0x88 arch/arm/cpu/arm926ejs/start.o
 .rel.text.bootp_timeout_handler
                0x21f4ead8       0x20 arch/arm/cpu/arm926ejs/start.o
 .rel.text.eth_set_dev
                0x21f4eaf8        0x8 arch/arm/cpu/arm926ejs/start.o
 .rel.text.eth_get_dev_by_index
                0x00000000        0x0 arch/arm/cpu/arm926ejs/start.o
 .rel.text.eth_get_dev_index
                0x21f4eb00        0x8 arch/arm/cpu/arm926ejs/start.o
 .rel.text.eth_halt
                0x21f4eb08        0x8 arch/arm/cpu/arm926ejs/start.o
 .rel.text.eth_send
                0x21f4eb10        0x8 arch/arm/cpu/arm926ejs/start.o
 .rel.text.eth_rx
                0x21f4eb18        0x8 arch/arm/cpu/arm926ejs/start.o
 .rel.text.eth_get_name
                0x21f4eb20       0x10 arch/arm/cpu/arm926ejs/start.o
 .rel.text.eth_current_changed
                0x21f4eb30       0x10 arch/arm/cpu/arm926ejs/start.o
 .rel.text.eth_try_another
                0x21f4eb40       0x28 arch/arm/cpu/arm926ejs/start.o
 .rel.text.eth_unregister
                0x00000000        0x0 arch/arm/cpu/arm926ejs/start.o
 .rel.text.eth_register
                0x21f4eb68       0x18 arch/arm/cpu/arm926ejs/start.o
 .rel.text.eth_setenv_enetaddr
                0x21f4eb80        0x8 arch/arm/cpu/arm926ejs/start.o
 .rel.text.eth_get_dev_by_name
                0x21f4eb88       0x28 arch/arm/cpu/arm926ejs/start.o
 .rel.text.eth_set_current
                0x21f4ebb0       0x20 arch/arm/cpu/arm926ejs/start.o
 .rel.text.eth_getenv_enetaddr_by_index
                0x21f4ebd0       0x10 arch/arm/cpu/arm926ejs/start.o
 .rel.text.eth_init
                0x21f4ebe0       0x20 arch/arm/cpu/arm926ejs/start.o
 .rel.text.eth_write_hwaddr
                0x21f4ec00       0x58 arch/arm/cpu/arm926ejs/start.o
 .rel.text.eth_initialize
                0x21f4ec58       0x88 arch/arm/cpu/arm926ejs/start.o
 .rel.text.start_again_timeout_handler
                0x21f4ece0        0x8 arch/arm/cpu/arm926ejs/start.o
 .rel.text.net_get_udp_handler
                0x00000000        0x0 arch/arm/cpu/arm926ejs/start.o
 .rel.text.net_set_udp_handler
                0x21f4ece8       0x10 arch/arm/cpu/arm926ejs/start.o
 .rel.text.net_get_arp_handler
                0x21f4ecf8        0x8 arch/arm/cpu/arm926ejs/start.o
 .rel.text.net_set_arp_handler
                0x21f4ed00       0x10 arch/arm/cpu/arm926ejs/start.o
 .rel.text.on_bootfile
                0x21f4ed10        0x8 arch/arm/cpu/arm926ejs/start.o
 .rel.text.net_eth_hdr_size
                0x21f4ed18        0x8 arch/arm/cpu/arm926ejs/start.o
 .rel.text.vlan_to_string
                0x00000000        0x0 arch/arm/cpu/arm926ejs/start.o
 .rel.text.ip_to_string
                0x21f4ed20        0x8 arch/arm/cpu/arm926ejs/start.o
 .rel.text.net_set_timeout_handler
                0x21f4ed28       0x18 arch/arm/cpu/arm926ejs/start.o
 .rel.text.net_set_ip_header
                0x21f4ed40        0x8 arch/arm/cpu/arm926ejs/start.o
 .rel.text.net_set_udp_header
                0x21f4ed48        0x8 arch/arm/cpu/arm926ejs/start.o
 .rel.text.net_update_ether
                0x21f4ed50        0x8 arch/arm/cpu/arm926ejs/start.o
 .rel.text.net_set_ether
                0x21f4ed58       0x10 arch/arm/cpu/arm926ejs/start.o
 .rel.text.net_process_received_packet
                0x21f4ed68       0x38 arch/arm/cpu/arm926ejs/start.o
 .rel.text.net_send_udp_packet
                0x21f4eda0       0x40 arch/arm/cpu/arm926ejs/start.o
 .rel.text.net_start_again
                0x21f4ede0       0x50 arch/arm/cpu/arm926ejs/start.o
 .rel.text.net_init_loop
                0x21f4ee30       0x78 arch/arm/cpu/arm926ejs/start.o
 .rel.text.net_init
                0x21f4eea8       0x20 arch/arm/cpu/arm926ejs/start.o
 .rel.text.net_loop
                0x21f4eec8      0x180 arch/arm/cpu/arm926ejs/start.o
 .rel.text.net_auto_load
                0x21f4f048       0x18 arch/arm/cpu/arm926ejs/start.o
 .rel.text.rpc_add_credentials
                0x21f4f060        0x8 arch/arm/cpu/arm926ejs/start.o
 .rel.text.rpc_lookup_reply
                0x21f4f068       0x18 arch/arm/cpu/arm926ejs/start.o
 .rel.text.nfs_mount_reply
                0x21f4f080       0x18 arch/arm/cpu/arm926ejs/start.o
 .rel.text.nfs_umountall_reply
                0x21f4f098       0x18 arch/arm/cpu/arm926ejs/start.o
 .rel.text.nfs_lookup_reply
                0x21f4f0b0       0x10 arch/arm/cpu/arm926ejs/start.o
 .rel.text.rpc_req
                0x21f4f0c0       0x38 arch/arm/cpu/arm926ejs/start.o
 .rel.text.nfs_umountall_req
                0x21f4f0f8       0x10 arch/arm/cpu/arm926ejs/start.o
 .rel.text.nfs_lookup_req
                0x21f4f108        0x8 arch/arm/cpu/arm926ejs/start.o
 .rel.text.nfs_read_req
                0x21f4f110        0x8 arch/arm/cpu/arm926ejs/start.o
 .rel.text.nfs_readlink_req
                0x21f4f118        0x8 arch/arm/cpu/arm926ejs/start.o
 .rel.text.nfs_send
                0x21f4f120       0x60 arch/arm/cpu/arm926ejs/start.o
 .rel.text.nfs_start
                0x21f4f180       0xe0 arch/arm/cpu/arm926ejs/start.o
 .rel.text.nfs_readlink_reply
                0x21f4f260       0x18 arch/arm/cpu/arm926ejs/start.o
 .rel.text.nfs_read_reply
                0x21f4f278       0x28 arch/arm/cpu/arm926ejs/start.o
 .rel.text.nfs_handler
                0x21f4f2a0       0xa8 arch/arm/cpu/arm926ejs/start.o
 .rel.text.nfs_timeout_handler
                0x21f4f348       0x20 arch/arm/cpu/arm926ejs/start.o
 .rel.text.ping_receive
                0x21f4f368       0x18 arch/arm/cpu/arm926ejs/start.o
 .rel.text.ping_start
                0x21f4f380       0x58 arch/arm/cpu/arm926ejs/start.o
 .rel.text.ping_timeout_handler
                0x21f4f3d8        0x8 arch/arm/cpu/arm926ejs/start.o
 .rel.text.tftp_send
                0x21f4f3e0       0xb8 arch/arm/cpu/arm926ejs/start.o
 .rel.text.tftp_start
                0x21f4f498      0x130 arch/arm/cpu/arm926ejs/start.o
 .rel.text.tftp_timeout_handler
                0x21f4f5c8       0x40 arch/arm/cpu/arm926ejs/start.o
 .rel.text.tftp_handler
                0x21f4f608       0xc8 arch/arm/cpu/arm926ejs/start.o
 .rel.u_boot_list_2_env_clbk_2_bootfile
                0x21f4f6d0       0x10 arch/arm/cpu/arm926ejs/start.o
 .rel.text.raise
                0x21f4f6e0        0x8 arch/arm/cpu/arm926ejs/start.o

.rel_dyn_end    0x21f4f6e8        0x0
 *(.__rel_dyn_end)
 .__rel_dyn_end
                0x21f4f6e8        0x0 arch/arm/lib/built-in.o

.end            0x21f4f6e8        0x0
 *(.__end)
 .__end         0x21f4f6e8        0x0 arch/arm/lib/built-in.o
                0x21f4f6e8                _image_binary_end = .
                0x21f50000                . = ALIGN (0x1000)

.mmutable
 *(.mmutable)

.bss_start      0x21f488f8        0x0
 *(.__bss_start)
 .__bss_start   0x21f488f8        0x0 arch/arm/lib/built-in.o
                0x21f488f8                __bss_start
                0x21f488f8                __bss_base = .

.bss            0x21f488f8    0x4a5f8
 *(.bss*)
 .bss.params    0x21f488f8        0x4 arch/arm/lib/built-in.o
 .bss.dataflash_info
                0x21f488fc       0xec board/atmel/at91sam9263ek/built-in.o
                0x21f488fc                dataflash_info
 .bss.flag_repeat
                0x21f489e8        0x4 common/built-in.o
 .bss.buf.4750  0x21f489ec       0x28 common/built-in.o
 .bss.ifs       0x21f48a14        0x4 common/built-in.o
 .bss.the_command.4276
                0x21f48a18      0x101 common/built-in.o
 *fill*         0x21f48b19        0x3 00
 .bss.last_return_code
                0x21f48b1c        0x4 common/built-in.o
 .bss.map       0x21f48b20      0x100 common/built-in.o
 .bss.do_repeat
                0x21f48c20        0x4 common/built-in.o
 .bss.top_vars  0x21f48c24        0x4 common/built-in.o
 .bss.stored_bootdelay
                0x21f48c28        0x4 common/built-in.o
 .bss.monitor_flash_len
                0x21f48c2c        0x4 common/built-in.o
                0x21f48c2c                monitor_flash_len
 .bss.images    0x21f48c30      0x130 common/built-in.o
                0x21f48c30                images
 .bss.callback_list
                0x21f48d60        0x4 common/built-in.o
 .bss.flags_list
                0x21f48d64        0x4 common/built-in.o
 .bss.env_flags
                0x21f48d68        0x1 common/built-in.o
 *fill*         0x21f48d69        0x3 00
 .bss.env_ptr   0x21f48d6c        0x4 common/built-in.o
                0x21f48d6c                env_ptr
 .bss.working_fdt
                0x21f48d70        0x4 common/built-in.o
                0x21f48d70                working_fdt
 .bss.data.5110
                0x21f48d74      0x400 common/built-in.o
 .bss.send_parms
                0x21f49174       0x14 common/built-in.o
 .bss.os_data_addr_saved
                0x21f49188        0x4 common/built-in.o
 .bss.his_pad_char
                0x21f4918c        0x1 common/built-in.o
 .bss.a_b       0x21f4918d       0x18 common/built-in.o
 *fill*         0x21f491a5        0x3 00
 .bss.os_data_char
                0x21f491a8        0x4 common/built-in.o
 .bss.os_data_state
                0x21f491ac        0x4 common/built-in.o
 .bss.k_data_escape
                0x21f491b0        0x4 common/built-in.o
 .bss.os_data_state_saved
                0x21f491b4        0x4 common/built-in.o
 .bss.os_data_addr
                0x21f491b8        0x4 common/built-in.o
 .bss.send_ptr  0x21f491bc        0x4 common/built-in.o
 .bss.his_pad_count
                0x21f491c0        0x4 common/built-in.o
 .bss.bin_start_address
                0x21f491c4        0x4 common/built-in.o
 .bss.his_quote
                0x21f491c8        0x1 common/built-in.o
 *fill*         0x21f491c9        0x3 00
 .bss.os_data_init
                0x21f491cc        0x4 common/built-in.o
 .bss.his_eol   0x21f491d0        0x1 common/built-in.o
 *fill*         0x21f491d1        0x3 00
 .bss.k_data_escape_saved
                0x21f491d4        0x4 common/built-in.o
 .bss.dp_last_addr
                0x21f491d8        0x4 common/built-in.o
 .bss.base_address
                0x21f491dc        0x4 common/built-in.o
 .bss.mm_last_size
                0x21f491e0        0x4 common/built-in.o
 .bss.mm_last_addr
                0x21f491e4        0x4 common/built-in.o
 .bss.dp_last_size
                0x21f491e8        0x4 common/built-in.o
 *fill*         0x21f491ec        0x4 00
 .bss.last.5397
                0x21f491f0        0x8 common/built-in.o
 .bss.dev_index
                0x21f491f8        0x4 common/built-in.o
 *fill*         0x21f491fc        0x4 00
 .bss.usb_dev   0x21f49200    0x13000 common/built-in.o
 .bss.asynch_allowed
                0x21f5c200        0x4 common/built-in.o
 .bss.usb_started
                0x21f5c204        0x1 common/built-in.o
                0x21f5c204                usb_started
 *fill*         0x21f5c205        0x3 00
 .bss.usb_hub_index
                0x21f5c208        0x4 common/built-in.o
 .bss.hub_dev   0x21f5c20c      0x100 common/built-in.o
 .bss.usb_stor  0x21f5c30c      0x104 common/built-in.o
 .bss.usb_dev_desc
                0x21f5c410      0x244 common/built-in.o
 .bss.usb_max_devs
                0x21f5c654        0x4 common/built-in.o
 .bss.CBWTag    0x21f5c658        0x4 common/built-in.o
 *fill*         0x21f5c65c       0x24 00
 .bss.usb_ccb   0x21f5c680       0xc0 common/built-in.o
 .bss.lcd_color_bg
                0x21f5c740        0x4 common/built-in.o
 .bss.lcd_base  0x21f5c744        0x4 common/built-in.o
 .bss.lcd_color_fg
                0x21f5c748        0x4 common/built-in.o
 .bss.lcd_line_length
                0x21f5c74c        0x4 common/built-in.o
                0x21f5c74c                lcd_line_length
 .bss.lcd_is_enabled
                0x21f5c750        0x1 common/built-in.o
                0x21f5c750                lcd_is_enabled
 .bss.lcd_flush_dcache
                0x21f5c751        0x1 common/built-in.o
 *fill*         0x21f5c752        0x2 00
 .bss.cons      0x21f5c754       0x24 common/built-in.o
 .bss.ctrlc_was_pressed
                0x21f5c778        0x4 common/built-in.o
 .bss.ctrlc_disabled
                0x21f5c77c        0x4 common/built-in.o
 .bss.mem_malloc_brk
                0x21f5c780        0x4 common/built-in.o
                0x21f5c780                mem_malloc_brk
 .bss.max_total_mem
                0x21f5c784        0x4 common/built-in.o
 .bss.max_sbrked_mem
                0x21f5c788        0x4 common/built-in.o
 .bss.current_mallinfo
                0x21f5c78c       0x28 common/built-in.o
 .bss.mem_malloc_end
                0x21f5c7b4        0x4 common/built-in.o
                0x21f5c7b4                mem_malloc_end
 .bss.top_pad   0x21f5c7b8        0x4 common/built-in.o
 .bss.mem_malloc_start
                0x21f5c7bc        0x4 common/built-in.o
                0x21f5c7bc                mem_malloc_start
 .bss.devs      0x21f5c7c0       0x4c common/built-in.o
 .bss.stdio_devices
                0x21f5c80c        0xc common/built-in.o
                0x21f5c80c                stdio_devices
 .bss.hist_list
                0x21f5c818       0x50 common/built-in.o
 .bss.hist_lines
                0x21f5c868     0x1414 common/built-in.o
 .bss.console_buffer
                0x21f5dc7c      0x101 common/built-in.o
                0x21f5dc7c                console_buffer
 *fill*         0x21f5dd7d        0x3 00
 .bss.hist_max  0x21f5dd80        0x4 common/built-in.o
 .bss.hist_add_idx
                0x21f5dd84        0x4 common/built-in.o
 .bss.hist_num  0x21f5dd88        0x4 common/built-in.o
 .bss.initted.4218
                0x21f5dd8c        0x4 common/built-in.o
 .bss.tmp_buf.4053
                0x21f5dd90      0x200 common/built-in.o
 .bss.tmp_buf   0x21f5df90      0x100 common/built-in.o
 .bss.xyz       0x21f5e090      0x434 common/built-in.o
 .bss.mmc_devices
                0x21f5e4c4        0x8 drivers/mmc/built-in.o
 .bss.initialized
                0x21f5e4cc        0x4 drivers/mmc/built-in.o
 .bss.DataFlashInst
                0x21f5e4d0        0x8 drivers/mtd/built-in.o
 .bss.nand_info
                0x21f5e4d8       0xc8 drivers/mtd/nand/built-in.o
                0x21f5e4d8                nand_info
 .bss.total_nand_size
                0x21f5e5a0        0x4 drivers/mtd/nand/built-in.o
 .bss.dev_name  0x21f5e5a4        0x8 drivers/mtd/nand/built-in.o
 *fill*         0x21f5e5ac        0x4 00
 .bss.nand_chip
                0x21f5e5b0      0x338 drivers/mtd/nand/built-in.o
 .bss.serial_devices
                0x21f5e8e8        0x4 drivers/serial/built-in.o
 .bss.serial_current
                0x21f5e8ec        0x4 drivers/serial/built-in.o
 .bss.phcca     0x21f5e8f0        0x4 drivers/usb/host/built-in.o
                0x21f5e8f0                phcca
 .bss.ptd       0x21f5e8f4        0x4 drivers/usb/host/built-in.o
                0x21f5e8f4                ptd
 .bss.gohci     0x21f5e8f8      0x148 drivers/usb/host/built-in.o
 .bss.devgone   0x21f5ea40        0x4 drivers/usb/host/built-in.o
                0x21f5ea40                devgone
 *fill*         0x21f5ea44       0x1c 00
 .bss.gtd       0x21f5ea60     0x1040 drivers/usb/host/built-in.o
                0x21f5ea60                gtd
 .bss.ohci_dev  0x21f5faa0      0x190 drivers/usb/host/built-in.o
                0x21f5faa0                ohci_dev
 *fill*         0x21f5fc30       0xd0 00
 .bss.ghcca     0x21f5fd00      0x100 drivers/usb/host/built-in.o
                0x21f5fd00                ghcca
 .bss.ohci_inited
                0x21f5fe00        0x1 drivers/usb/host/built-in.o
 *fill*         0x21f5fe01        0x3 00
 .bss.fs_partition
                0x21f5fe04       0x50 fs/built-in.o
 .bss.fs_type   0x21f5fe54        0x4 fs/built-in.o
 .bss.fs_dev_desc
                0x21f5fe58        0x4 fs/built-in.o
 *fill*         0x21f5fe5c       0x24 00
 .bss.do_fat_read_at_block
                0x21f5fe80    0x10000 fs/built-in.o
                0x21f5fe80                do_fat_read_at_block
 .bss.get_dentfromdir_block
                0x21f6fe80    0x10000 fs/built-in.o
                0x21f6fe80                get_dentfromdir_block
 .bss.cur_part_info
                0x21f7fe80       0x50 fs/built-in.o
 *fill*         0x21f7fed0       0x30 00
 .bss.get_contents_vfatname_block
                0x21f7ff00    0x10000 fs/built-in.o
                0x21f7ff00                get_contents_vfatname_block
 .bss.cur_dev   0x21f8ff00        0x4 fs/built-in.o
 .bss.errno     0x21f8ff04        0x4 lib/built-in.o
                0x21f8ff04                errno
 .bss.local.4584
                0x21f8ff08       0x16 lib/built-in.o
 .bss.arp_tx_packet_buf
                0x21f8ff1e      0x640 net/built-in.o
 *fill*         0x21f9055e        0x2 00
 .bss.arp_wait_packet_ethaddr
                0x21f90560        0x4 net/built-in.o
                0x21f90560                arp_wait_packet_ethaddr
 .bss.arp_tx_packet
                0x21f90564        0x4 net/built-in.o
 .bss.arp_wait_tx_packet_size
                0x21f90568        0x4 net/built-in.o
                0x21f90568                arp_wait_tx_packet_size
 .bss.arp_wait_try
                0x21f9056c        0x4 net/built-in.o
                0x21f9056c                arp_wait_try
 .bss.net_arp_wait_reply_ip
                0x21f90570        0x4 net/built-in.o
 .bss.net_arp_wait_packet_ip
                0x21f90574        0x4 net/built-in.o
                0x21f90574                net_arp_wait_packet_ip
 .bss.arp_wait_timer_start
                0x21f90578        0x4 net/built-in.o
                0x21f90578                arp_wait_timer_start
 .bss.dhcp_state
                0x21f9057c        0x4 net/built-in.o
 .bss.net_hostname
                0x21f90580       0x20 net/built-in.o
                0x21f90580                net_hostname
 .bss.bootp_timeout
                0x21f905a0        0x4 net/built-in.o
                0x21f905a0                bootp_timeout
 .bss.dhcp_server_ip
                0x21f905a4        0x4 net/built-in.o
 .bss.net_root_path
                0x21f905a8       0x40 net/built-in.o
                0x21f905a8                net_root_path
 .bss.bootp_ids
                0x21f905e8       0x10 net/built-in.o
                0x21f905e8                bootp_ids
 .bss.bootp_num_ids
                0x21f905f8        0x4 net/built-in.o
                0x21f905f8                bootp_num_ids
 .bss.bootp_try
                0x21f905fc        0x4 net/built-in.o
                0x21f905fc                bootp_try
 .bss.bootp_start
                0x21f90600        0x4 net/built-in.o
                0x21f90600                bootp_start
 .bss.dhcp_leasetime
                0x21f90604        0x4 net/built-in.o
 .bss.net_nis_domain
                0x21f90608       0x20 net/built-in.o
                0x21f90608                net_nis_domain
 .bss.env_changed_id.6149
                0x21f90628        0x4 net/built-in.o
 .bss.act.6148  0x21f9062c        0x4 net/built-in.o
 .bss.index.6043
                0x21f90630        0x4 net/built-in.o
 .bss.first_failed.6137
                0x21f90634        0x4 net/built-in.o
 .bss.eth_current
                0x21f90638        0x4 net/built-in.o
                0x21f90638                eth_current
 .bss.eth_devices
                0x21f9063c        0x4 net/built-in.o
 .bss.net_server_ip
                0x21f90640        0x4 net/built-in.o
                0x21f90640                net_server_ip
 .bss.net_boot_file_expected_size_in_blocks
                0x21f90644        0x4 net/built-in.o
                0x21f90644                net_boot_file_expected_size_in_blocks
 .bss.net_ethaddr
                0x21f90648        0x6 net/built-in.o
                0x21f90648                net_ethaddr
 *fill*         0x21f9064e        0x2 00
 .bss.net_dns_server
                0x21f90650        0x4 net/built-in.o
                0x21f90650                net_dns_server
 .bss.net_state
                0x21f90654        0x4 net/built-in.o
                0x21f90654                net_state
 .bss.net_pkt_buf
                0x21f90658     0x1e40 net/built-in.o
 .bss.net_rx_packet
                0x21f92498        0x4 net/built-in.o
                0x21f92498                net_rx_packet
 .bss.net_ip_id
                0x21f9249c        0x4 net/built-in.o
 .bss.time_start
                0x21f924a0        0x8 net/built-in.o
 .bss.net_gateway
                0x21f924a8        0x4 net/built-in.o
                0x21f924a8                net_gateway
 .bss.net_boot_file_name
                0x21f924ac       0x80 net/built-in.o
                0x21f924ac                net_boot_file_name
 .bss.udp_packet_handler
                0x21f9252c        0x4 net/built-in.o
 .bss.net_dev_exists
                0x21f92530        0x4 net/built-in.o
 .bss.net_try_count
                0x21f92534        0x4 net/built-in.o
 .bss.net_restart_wrap
                0x21f92538        0x4 net/built-in.o
                0x21f92538                net_restart_wrap
 .bss.env_changed_id.4207
                0x21f9253c        0x4 net/built-in.o
 .bss.net_restarted
                0x21f92540        0x4 net/built-in.o
 .bss.net_server_ethaddr
                0x21f92544        0x6 net/built-in.o
                0x21f92544                net_server_ethaddr
 *fill*         0x21f9254a        0x2 00
 .bss.net_rx_packets
                0x21f9254c       0x10 net/built-in.o
                0x21f9254c                net_rx_packets
 .bss.net_null_ethaddr
                0x21f9255c        0x6 net/built-in.o
                0x21f9255c                net_null_ethaddr
 *fill*         0x21f92562        0x2 00
 .bss.net_netmask
                0x21f92564        0x4 net/built-in.o
                0x21f92564                net_netmask
 .bss.time_delta
                0x21f92568        0x4 net/built-in.o
 .bss.net_ip    0x21f9256c        0x4 net/built-in.o
                0x21f9256c                net_ip
 .bss.net_rx_packet_len
                0x21f92570        0x4 net/built-in.o
                0x21f92570                net_rx_packet_len
 .bss.arp_packet_handler
                0x21f92574        0x4 net/built-in.o
 .bss.net_tx_packet
                0x21f92578        0x4 net/built-in.o
                0x21f92578                net_tx_packet
 .bss.time_handler
                0x21f9257c        0x4 net/built-in.o
 .bss.net_boot_file_size
                0x21f92580        0x4 net/built-in.o
                0x21f92580                net_boot_file_size
 .bss.nfs_server_mount_port
                0x21f92584        0x4 net/built-in.o
 .bss.nfs_server_ip
                0x21f92588        0x4 net/built-in.o
 .bss.nfs_filename
                0x21f9258c        0x4 net/built-in.o
 .bss.nfs_state
                0x21f92590        0x4 net/built-in.o
 .bss.dirfh     0x21f92594       0x20 net/built-in.o
 .bss.nfs_len   0x21f925b4        0x4 net/built-in.o
 .bss.rpc_id    0x21f925b8        0x4 net/built-in.o
 .bss.fs_mounted
                0x21f925bc        0x4 net/built-in.o
 .bss.default_filename
                0x21f925c0       0x4d net/built-in.o
 *fill*         0x21f9260d        0x3 00
 .bss.nfs_server_port
                0x21f92610        0x4 net/built-in.o
 .bss.nfs_download_state
                0x21f92614        0x4 net/built-in.o
 .bss.nfs_path  0x21f92618        0x4 net/built-in.o
 .bss.filefh    0x21f9261c       0x20 net/built-in.o
 .bss.nfs_path_buff
                0x21f9263c      0x800 net/built-in.o
 .bss.nfs_timeout_count
                0x21f92e3c        0x4 net/built-in.o
 .bss.nfs_our_port
                0x21f92e40        0x4 net/built-in.o
 .bss.net_ping_ip
                0x21f92e44        0x4 net/built-in.o
                0x21f92e44                net_ping_ip
 .bss.ping_seq_number
                0x21f92e48        0x2 net/built-in.o
 *fill*         0x21f92e4a        0x2 00
 .bss.tftp_block_wrap
                0x21f92e4c        0x4 net/built-in.o
 .bss.tftp_remote_port
                0x21f92e50        0x4 net/built-in.o
 .bss.tftp_cur_block
                0x21f92e54        0x4 net/built-in.o
 .bss.tftp_remote_ip
                0x21f92e58        0x4 net/built-in.o
 .bss.tftp_state
                0x21f92e5c        0x4 net/built-in.o
 .bss.tftp_our_port
                0x21f92e60        0x4 net/built-in.o
 .bss.timeout_count
                0x21f92e64        0x4 net/built-in.o
 .bss.tftp_filename
                0x21f92e68       0x80 net/built-in.o
 .bss.tftp_block_wrap_offset
                0x21f92ee8        0x4 net/built-in.o
 .bss.tftp_prev_block
                0x21f92eec        0x4 net/built-in.o
                0x21f92ef0                . = ALIGN (0x4)
                0x21f92ef0                __bss_limit = .

.bss_end        0x21f92ef0        0x0
 *(.__bss_end)
 .__bss_end     0x21f92ef0        0x0 arch/arm/lib/built-in.o
                0x21f92ef0                __bss_end

.dynsym         0x21f4f6e8       0x60
 *(.dynsym)
 .dynsym        0x21f4f6e8       0x60 arch/arm/cpu/arm926ejs/start.o

.dynbss         0x21f4f748        0x0
 *(.dynbss)
 .dynbss        0x00000000        0x0 arch/arm/cpu/arm926ejs/start.o

.dynstr         0x21f4f748       0x2a
 *(.dynstr*)
 .dynstr        0x21f4f748       0x2a arch/arm/cpu/arm926ejs/start.o

.dynamic        0x21f4f774       0x80
 *(.dynamic*)
 .dynamic       0x21f4f774       0x80 arch/arm/cpu/arm926ejs/start.o
                0x21f4f774                _DYNAMIC

.plt            0x21f4f7f4        0x0
 *(.plt*)
 .plt           0x00000000        0x0 arch/arm/cpu/arm926ejs/start.o

.interp         0x21f4f7f4       0x11
 *(.interp*)
 .interp        0x21f4f7f4       0x11 arch/arm/cpu/arm926ejs/start.o

.gnu.hash
 *(.gnu.hash)

.gnu            0x21f4f808        0x0 load address 0x21f4f805
 *(.gnu*)
 .gnu.version_d
                0x00000000        0x0 arch/arm/cpu/arm926ejs/start.o
 .gnu.version   0x00000000        0x0 arch/arm/cpu/arm926ejs/start.o
 .gnu.version_r
                0x00000000        0x0 arch/arm/cpu/arm926ejs/start.o

.ARM.exidx
 *(.ARM.exidx*)

.gnu.linkonce.armexidx
 *(.gnu.linkonce.armexidx.*)
LOAD arch/arm/cpu/arm926ejs/start.o
START GROUP
LOAD arch/arm/cpu/built-in.o
LOAD arch/arm/cpu/arm926ejs/built-in.o
LOAD arch/arm/lib/built-in.o
LOAD arch/arm/mach-at91/built-in.o
LOAD board/atmel/at91sam9263ek/built-in.o
LOAD common/built-in.o
LOAD disk/built-in.o
LOAD drivers/built-in.o
LOAD drivers/dma/built-in.o
LOAD drivers/gpio/built-in.o
LOAD drivers/i2c/built-in.o
LOAD drivers/mmc/built-in.o
LOAD drivers/mtd/built-in.o
LOAD drivers/mtd/nand/built-in.o
LOAD drivers/mtd/onenand/built-in.o
LOAD drivers/mtd/spi/built-in.o
LOAD drivers/net/built-in.o
LOAD drivers/net/phy/built-in.o
LOAD drivers/pci/built-in.o
LOAD drivers/power/built-in.o
LOAD drivers/power/battery/built-in.o
LOAD drivers/power/fuel_gauge/built-in.o
LOAD drivers/power/mfd/built-in.o
LOAD drivers/power/pmic/built-in.o
LOAD drivers/serial/built-in.o
LOAD drivers/spi/built-in.o
LOAD drivers/usb/dwc3/built-in.o
LOAD drivers/usb/emul/built-in.o
LOAD drivers/usb/eth/built-in.o
LOAD drivers/usb/gadget/built-in.o
LOAD drivers/usb/gadget/udc/built-in.o
LOAD drivers/usb/host/built-in.o
LOAD drivers/usb/musb-new/built-in.o
LOAD drivers/usb/musb/built-in.o
LOAD drivers/usb/phy/built-in.o
LOAD drivers/usb/ulpi/built-in.o
LOAD fs/built-in.o
LOAD lib/built-in.o
LOAD net/built-in.o
LOAD test/built-in.o
LOAD test/dm/built-in.o
END GROUP
LOAD arch/arm/lib/eabi_compat.o
LOAD /home/newfriday/cross_compile/AT91BootStrap/bin/../lib/gcc/arm-none-linux-gnueabi/4.3.3/libgcc.a
OUTPUT(u-boot elf32-littlearm)

.ARM.attributes
                0x00000000       0x27
 .ARM.attributes
                0x00000000       0x1b arch/arm/cpu/arm926ejs/start.o
 .ARM.attributes
                0x0000001b       0x2b arch/arm/cpu/arm926ejs/built-in.o
 .ARM.attributes
                0x00000046       0x27 arch/arm/lib/built-in.o
 .ARM.attributes
                0x0000006d       0x2b arch/arm/mach-at91/built-in.o
 .ARM.attributes
                0x00000098       0x2b board/atmel/at91sam9263ek/built-in.o
 .ARM.attributes
                0x000000c3       0x2b common/built-in.o
 .ARM.attributes
                0x000000ee       0x2b disk/built-in.o
 .ARM.attributes
                0x00000119       0x2b drivers/built-in.o
 .ARM.attributes
                0x00000144       0x2b drivers/gpio/built-in.o
 .ARM.attributes
                0x0000016f       0x2b drivers/mmc/built-in.o
 .ARM.attributes
                0x0000019a       0x2b drivers/mtd/built-in.o
 .ARM.attributes
                0x000001c5       0x2b drivers/mtd/nand/built-in.o
 .ARM.attributes
                0x000001f0       0x2b drivers/net/built-in.o
 .ARM.attributes
                0x0000021b       0x2b drivers/serial/built-in.o
 .ARM.attributes
                0x00000246       0x2b drivers/spi/built-in.o
 .ARM.attributes
                0x00000271       0x2b drivers/usb/host/built-in.o
 .ARM.attributes
                0x0000029c       0x2b fs/built-in.o
 .ARM.attributes
                0x000002c7       0x2b lib/built-in.o
 .ARM.attributes
                0x000002f2       0x2b net/built-in.o
 .ARM.attributes
                0x0000031d       0x2b arch/arm/lib/eabi_compat.o
 .ARM.attributes
                0x00000348       0x16 /home/newfriday/cross_compile/AT91BootStrap/bin/../lib/gcc/arm-none-linux-gnueabi/4.3.3/libgcc.a(_udivsi3.o)
 .ARM.attributes
                0x0000035e       0x16 /home/newfriday/cross_compile/AT91BootStrap/bin/../lib/gcc/arm-none-linux-gnueabi/4.3.3/libgcc.a(_divsi3.o)
 .ARM.attributes
                0x00000374       0x16 /home/newfriday/cross_compile/AT91BootStrap/bin/../lib/gcc/arm-none-linux-gnueabi/4.3.3/libgcc.a(_lshrdi3.o)
 .ARM.attributes
                0x0000038a       0x16 /home/newfriday/cross_compile/AT91BootStrap/bin/../lib/gcc/arm-none-linux-gnueabi/4.3.3/libgcc.a(_ashrdi3.o)
 .ARM.attributes
                0x000003a0       0x16 /home/newfriday/cross_compile/AT91BootStrap/bin/../lib/gcc/arm-none-linux-gnueabi/4.3.3/libgcc.a(_ashldi3.o)
 .ARM.attributes
                0x000003b6       0x14 /home/newfriday/cross_compile/AT91BootStrap/bin/../lib/gcc/arm-none-linux-gnueabi/4.3.3/libgcc.a(_dvmd_lnx.o)

.note.GNU-stack
                0x00000000        0x0
 .note.GNU-stack
                0x00000000        0x0 arch/arm/cpu/arm926ejs/built-in.o
 .note.GNU-stack
                0x00000000        0x0 arch/arm/lib/built-in.o
 .note.GNU-stack
                0x00000000        0x0 arch/arm/mach-at91/built-in.o
 .note.GNU-stack
                0x00000000        0x0 board/atmel/at91sam9263ek/built-in.o
 .note.GNU-stack
                0x00000000        0x0 common/built-in.o
 .note.GNU-stack
                0x00000000        0x0 disk/built-in.o
 .note.GNU-stack
                0x00000000        0x0 drivers/built-in.o
 .note.GNU-stack
                0x00000000        0x0 drivers/gpio/built-in.o
 .note.GNU-stack
                0x00000000        0x0 drivers/mmc/built-in.o
 .note.GNU-stack
                0x00000000        0x0 drivers/mtd/built-in.o
 .note.GNU-stack
                0x00000000        0x0 drivers/mtd/nand/built-in.o
 .note.GNU-stack
                0x00000000        0x0 drivers/net/built-in.o
 .note.GNU-stack
                0x00000000        0x0 drivers/serial/built-in.o
 .note.GNU-stack
                0x00000000        0x0 drivers/spi/built-in.o
 .note.GNU-stack
                0x00000000        0x0 drivers/usb/host/built-in.o
 .note.GNU-stack
                0x00000000        0x0 fs/built-in.o
 .note.GNU-stack
                0x00000000        0x0 lib/built-in.o
 .note.GNU-stack
                0x00000000        0x0 net/built-in.o
 .note.GNU-stack
                0x00000000        0x0 arch/arm/lib/eabi_compat.o
 .note.GNU-stack
                0x00000000        0x0 /home/newfriday/cross_compile/AT91BootStrap/bin/../lib/gcc/arm-none-linux-gnueabi/4.3.3/libgcc.a(_udivsi3.o)
 .note.GNU-stack
                0x00000000        0x0 /home/newfriday/cross_compile/AT91BootStrap/bin/../lib/gcc/arm-none-linux-gnueabi/4.3.3/libgcc.a(_divsi3.o)
 .note.GNU-stack
                0x00000000        0x0 /home/newfriday/cross_compile/AT91BootStrap/bin/../lib/gcc/arm-none-linux-gnueabi/4.3.3/libgcc.a(_lshrdi3.o)
 .note.GNU-stack
                0x00000000        0x0 /home/newfriday/cross_compile/AT91BootStrap/bin/../lib/gcc/arm-none-linux-gnueabi/4.3.3/libgcc.a(_ashrdi3.o)
 .note.GNU-stack
                0x00000000        0x0 /home/newfriday/cross_compile/AT91BootStrap/bin/../lib/gcc/arm-none-linux-gnueabi/4.3.3/libgcc.a(_ashldi3.o)
 .note.GNU-stack
                0x00000000        0x0 /home/newfriday/cross_compile/AT91BootStrap/bin/../lib/gcc/arm-none-linux-gnueabi/4.3.3/libgcc.a(_dvmd_lnx.o)

.comment        0x00000000     0x1907
 .comment       0x00000000       0x56 arch/arm/cpu/arm926ejs/built-in.o
 .comment       0x00000056      0x158 arch/arm/lib/built-in.o
 .comment       0x000001ae      0x12d arch/arm/mach-at91/built-in.o
 .comment       0x000002db       0x81 board/atmel/at91sam9263ek/built-in.o
 .comment       0x0000035c      0x993 common/built-in.o
 .comment       0x00000cef       0x56 disk/built-in.o
 .comment       0x00000d45       0xd7 drivers/built-in.o
 .comment       0x00000e1c       0x2b drivers/gpio/built-in.o
 .comment       0x00000e47       0x81 drivers/mmc/built-in.o
 .comment       0x00000ec8       0x81 drivers/mtd/built-in.o
 .comment       0x00000f49      0x12d drivers/mtd/nand/built-in.o
 .comment       0x00001076       0x2b drivers/net/built-in.o
 .comment       0x000010a1       0x56 drivers/serial/built-in.o
 .comment       0x000010f7       0x56 drivers/spi/built-in.o
 .comment       0x0000114d       0x56 drivers/usb/host/built-in.o
 .comment       0x000011a3       0x81 fs/built-in.o
 .comment       0x00001224      0x560 lib/built-in.o
 .comment       0x00001784      0x158 net/built-in.o
 .comment       0x000018dc       0x2b arch/arm/lib/eabi_compat.o

.debug_line     0x00000000    0x15ec6
 .debug_line    0x00000000       0x55 arch/arm/cpu/arm926ejs/start.o
 .debug_line    0x00000055      0x1ed arch/arm/cpu/arm926ejs/built-in.o
 .debug_line    0x00000242      0xbac arch/arm/lib/built-in.o
 .debug_line    0x00000dee      0x966 arch/arm/mach-at91/built-in.o
 .debug_line    0x00001754      0x47a board/atmel/at91sam9263ek/built-in.o
 .debug_line    0x00001bce     0x8cdc common/built-in.o
 .debug_line    0x0000a8aa      0x460 disk/built-in.o
 .debug_line    0x0000ad0a      0x64d drivers/built-in.o
 .debug_line    0x0000b357      0x27b drivers/gpio/built-in.o
 .debug_line    0x0000b5d2      0xc90 drivers/mmc/built-in.o
 .debug_line    0x0000c262      0x984 drivers/mtd/built-in.o
 .debug_line    0x0000cbe6     0x208c drivers/mtd/nand/built-in.o
 .debug_line    0x0000ec72      0x3f7 drivers/net/built-in.o
 .debug_line    0x0000f069      0x502 drivers/serial/built-in.o
 .debug_line    0x0000f56b      0x24f drivers/spi/built-in.o
 .debug_line    0x0000f7ba      0x76c drivers/usb/host/built-in.o
 .debug_line    0x0000ff26      0xa77 fs/built-in.o
 .debug_line    0x0001099d     0x39d9 lib/built-in.o
 .debug_line    0x00014376     0x1a43 net/built-in.o
 .debug_line    0x00015db9      0x10d arch/arm/lib/eabi_compat.o

.debug_info     0x00000000    0x75efb
 .debug_info    0x00000000       0x65 arch/arm/cpu/arm926ejs/start.o
 .debug_info    0x00000065      0x86a arch/arm/cpu/arm926ejs/built-in.o
 .debug_info    0x000008cf     0x4074 arch/arm/lib/built-in.o
 .debug_info    0x00004943     0x312c arch/arm/mach-at91/built-in.o
 .debug_info    0x00007a6f     0x259b board/atmel/at91sam9263ek/built-in.o
 .debug_info    0x0000a00a    0x321b9 common/built-in.o
 .debug_info    0x0003c1c3     0x18a6 disk/built-in.o
 .debug_info    0x0003da69     0x2353 drivers/built-in.o
 .debug_info    0x0003fdbc     0x1038 drivers/gpio/built-in.o
 .debug_info    0x00040df4     0x426d drivers/mmc/built-in.o
 .debug_info    0x00045061     0x2b65 drivers/mtd/built-in.o
 .debug_info    0x00047bc6     0xdd0d drivers/mtd/nand/built-in.o
 .debug_info    0x000558d3     0x1aab drivers/net/built-in.o
 .debug_info    0x0005737e     0x1d83 drivers/serial/built-in.o
 .debug_info    0x00059101      0xef7 drivers/spi/built-in.o
 .debug_info    0x00059ff8     0x2ea4 drivers/usb/host/built-in.o
 .debug_info    0x0005ce9c     0x364c fs/built-in.o
 .debug_info    0x000604e8     0xdc43 lib/built-in.o
 .debug_info    0x0006e12b     0x7963 net/built-in.o
 .debug_info    0x00075a8e      0x46d arch/arm/lib/eabi_compat.o

.debug_abbrev   0x00000000    0x15a5f
 .debug_abbrev  0x00000000       0x14 arch/arm/cpu/arm926ejs/start.o
 .debug_abbrev  0x00000014      0x2a5 arch/arm/cpu/arm926ejs/built-in.o
 .debug_abbrev  0x000002b9      0xdba arch/arm/lib/built-in.o
 .debug_abbrev  0x00001073      0xb0a arch/arm/mach-at91/built-in.o
 .debug_abbrev  0x00001b7d      0x575 board/atmel/at91sam9263ek/built-in.o
 .debug_abbrev  0x000020f2     0x92ee common/built-in.o
 .debug_abbrev  0x0000b3e0      0x56a disk/built-in.o
 .debug_abbrev  0x0000b94a      0x81a drivers/built-in.o
 .debug_abbrev  0x0000c164      0x317 drivers/gpio/built-in.o
 .debug_abbrev  0x0000c47b      0xb74 drivers/mmc/built-in.o
 .debug_abbrev  0x0000cfef      0x7bc drivers/mtd/built-in.o
 .debug_abbrev  0x0000d7ab     0x1450 drivers/mtd/nand/built-in.o
 .debug_abbrev  0x0000ebfb      0x444 drivers/net/built-in.o
 .debug_abbrev  0x0000f03f      0x5c7 drivers/serial/built-in.o
 .debug_abbrev  0x0000f606      0x36b drivers/spi/built-in.o
 .debug_abbrev  0x0000f971      0x583 drivers/usb/host/built-in.o
 .debug_abbrev  0x0000fef4      0x912 fs/built-in.o
 .debug_abbrev  0x00010806     0x3674 lib/built-in.o
 .debug_abbrev  0x00013e7a     0x1a99 net/built-in.o
 .debug_abbrev  0x00015913      0x14c arch/arm/lib/eabi_compat.o

.debug_aranges  0x00000000     0x3550
 .debug_aranges
                0x00000000       0x20 arch/arm/cpu/arm926ejs/start.o
 .debug_aranges
                0x00000020       0x70 arch/arm/cpu/arm926ejs/built-in.o
 .debug_aranges
                0x00000090      0x258 arch/arm/lib/built-in.o
 .debug_aranges
                0x000002e8      0x188 arch/arm/mach-at91/built-in.o
 .debug_aranges
                0x00000470       0x80 board/atmel/at91sam9263ek/built-in.o
 .debug_aranges
                0x000004f0     0x1568 common/built-in.o
 .debug_aranges
                0x00001a58       0xa0 disk/built-in.o
 .debug_aranges
                0x00001af8       0xa8 drivers/built-in.o
 .debug_aranges
                0x00001ba0       0xa8 drivers/gpio/built-in.o
 .debug_aranges
                0x00001c48      0x1c0 drivers/mmc/built-in.o
 .debug_aranges
                0x00001e08      0x1f8 drivers/mtd/built-in.o
 .debug_aranges
                0x00002000      0x388 drivers/mtd/nand/built-in.o
 .debug_aranges
                0x00002388       0x70 drivers/net/built-in.o
 .debug_aranges
                0x000023f8      0x110 drivers/serial/built-in.o
 .debug_aranges
                0x00002508       0x58 drivers/spi/built-in.o
 .debug_aranges
                0x00002560       0xb8 drivers/usb/host/built-in.o
 .debug_aranges
                0x00002618      0x1e0 fs/built-in.o
 .debug_aranges
                0x000027f8      0x978 lib/built-in.o
 .debug_aranges
                0x00003170      0x3a0 net/built-in.o
 .debug_aranges
                0x00003510       0x40 arch/arm/lib/eabi_compat.o

.debug_pubnames
                0x00000000     0x588e
 .debug_pubnames
                0x00000000       0xc4 arch/arm/cpu/arm926ejs/built-in.o
 .debug_pubnames
                0x000000c4      0x42e arch/arm/lib/built-in.o
 .debug_pubnames
                0x000004f2      0x2a0 arch/arm/mach-at91/built-in.o
 .debug_pubnames
                0x00000792      0x129 board/atmel/at91sam9263ek/built-in.o
 .debug_pubnames
                0x000008bb     0x24e7 common/built-in.o
 .debug_pubnames
                0x00002da2       0xe5 disk/built-in.o
 .debug_pubnames
                0x00002e87      0x121 drivers/built-in.o
 .debug_pubnames
                0x00002fa8      0x17a drivers/gpio/built-in.o
 .debug_pubnames
                0x00003122      0x245 drivers/mmc/built-in.o
 .debug_pubnames
                0x00003367      0x501 drivers/mtd/built-in.o
 .debug_pubnames
                0x00003868      0x2c1 drivers/mtd/nand/built-in.o
 .debug_pubnames
                0x00003b29       0x44 drivers/net/built-in.o
 .debug_pubnames
                0x00003b6d      0x19c drivers/serial/built-in.o
 .debug_pubnames
                0x00003d09       0x88 drivers/spi/built-in.o
 .debug_pubnames
                0x00003d91      0x147 drivers/usb/host/built-in.o
 .debug_pubnames
                0x00003ed8      0x278 fs/built-in.o
 .debug_pubnames
                0x00004150      0xedb lib/built-in.o
 .debug_pubnames
                0x0000502b      0x7eb net/built-in.o
 .debug_pubnames
                0x00005816       0x78 arch/arm/lib/eabi_compat.o

.debug_frame    0x00000000     0x8de4
 .debug_frame   0x00000000       0xc0 arch/arm/cpu/arm926ejs/built-in.o
 .debug_frame   0x000000c0      0x3f8 arch/arm/lib/built-in.o
 .debug_frame   0x000004b8      0x2ac arch/arm/mach-at91/built-in.o
 .debug_frame   0x00000764       0xf4 board/atmel/at91sam9263ek/built-in.o
 .debug_frame   0x00000858     0x3930 common/built-in.o
 .debug_frame   0x00004188      0x1d8 disk/built-in.o
 .debug_frame   0x00004360      0x1a4 drivers/built-in.o
 .debug_frame   0x00004504      0x1d4 drivers/gpio/built-in.o
 .debug_frame   0x000046d8      0x4f8 drivers/mmc/built-in.o
 .debug_frame   0x00004bd0      0x618 drivers/mtd/built-in.o
 .debug_frame   0x000051e8      0xbf4 drivers/mtd/nand/built-in.o
 .debug_frame   0x00005ddc      0x11c drivers/net/built-in.o
 .debug_frame   0x00005ef8      0x2a0 drivers/serial/built-in.o
 .debug_frame   0x00006198       0x9c drivers/spi/built-in.o
 .debug_frame   0x00006234      0x1f8 drivers/usb/host/built-in.o
 .debug_frame   0x0000642c      0x5a4 fs/built-in.o
 .debug_frame   0x000069d0     0x1928 lib/built-in.o
 .debug_frame   0x000082f8      0xa44 net/built-in.o
 .debug_frame   0x00008d3c       0x68 arch/arm/lib/eabi_compat.o
 .debug_frame   0x00008da4       0x20 /home/newfriday/cross_compile/AT91BootStrap/bin/../lib/gcc/arm-none-linux-gnueabi/4.3.3/libgcc.a(_udivsi3.o)
 .debug_frame   0x00008dc4       0x20 /home/newfriday/cross_compile/AT91BootStrap/bin/../lib/gcc/arm-none-linux-gnueabi/4.3.3/libgcc.a(_divsi3.o)

.debug_str      0x00000000     0xe920
 .debug_str     0x00000000      0x2db arch/arm/cpu/arm926ejs/built-in.o
                                0x5fb (size before relaxing)
 .debug_str     0x000002db     0x1362 arch/arm/lib/built-in.o
                               0x2e1a (size before relaxing)
 .debug_str     0x0000163d      0x436 arch/arm/mach-at91/built-in.o
                               0x1cbc (size before relaxing)
 .debug_str     0x00001a73      0x6b0 board/atmel/at91sam9263ek/built-in.o
                               0x13c0 (size before relaxing)
 .debug_str     0x00002123     0x63da common/built-in.o
                              0x1e557 (size before relaxing)
 .debug_str     0x000084fd      0x29d disk/built-in.o
                                0xb9c (size before relaxing)
 .debug_str     0x0000879a      0x4c4 drivers/built-in.o
                               0x154e (size before relaxing)
 .debug_str     0x00008c5e      0x1f2 drivers/gpio/built-in.o
                                0x54a (size before relaxing)
 .debug_str     0x00008e50      0x5a7 drivers/mmc/built-in.o
                               0x19a4 (size before relaxing)
 .debug_str     0x000093f7      0x613 drivers/mtd/built-in.o
                               0x150f (size before relaxing)
 .debug_str     0x00009a0a      0xff1 drivers/mtd/nand/built-in.o
                               0x61c5 (size before relaxing)
 .debug_str     0x0000a9fb      0x54f drivers/net/built-in.o
                                0xaa4 (size before relaxing)
 .debug_str     0x0000af4a      0x2b0 drivers/serial/built-in.o
                               0x10c5 (size before relaxing)
 .debug_str     0x0000b1fa       0xc7 drivers/spi/built-in.o
                                0x880 (size before relaxing)
 .debug_str     0x0000b2c1      0x611 drivers/usb/host/built-in.o
                               0x1350 (size before relaxing)
 .debug_str     0x0000b8d2      0x792 fs/built-in.o
                               0x1572 (size before relaxing)
 .debug_str     0x0000c064     0x1685 lib/built-in.o
                               0x6580 (size before relaxing)
 .debug_str     0x0000d6e9     0x11c3 net/built-in.o
                               0x568c (size before relaxing)
 .debug_str     0x0000e8ac       0x74 arch/arm/lib/eabi_compat.o
                                0x31c (size before relaxing)

.debug_loc      0x00000000    0x2deb3
 .debug_loc     0x00000000      0x12c arch/arm/cpu/arm926ejs/built-in.o
 .debug_loc     0x0000012c      0x7da arch/arm/lib/built-in.o
 .debug_loc     0x00000906      0x475 arch/arm/mach-at91/built-in.o
 .debug_loc     0x00000d7b      0x112 board/atmel/at91sam9263ek/built-in.o
 .debug_loc     0x00000e8d    0x129b9 common/built-in.o
 .debug_loc     0x00013846      0x943 disk/built-in.o
 .debug_loc     0x00014189      0x7fc drivers/built-in.o
 .debug_loc     0x00014985      0x65b drivers/gpio/built-in.o
 .debug_loc     0x00014fe0     0x1aab drivers/mmc/built-in.o
 .debug_loc     0x00016a8b     0x1b21 drivers/mtd/built-in.o
 .debug_loc     0x000185ac     0x5afe drivers/mtd/nand/built-in.o
 .debug_loc     0x0001e0aa      0x66b drivers/net/built-in.o
 .debug_loc     0x0001e715      0x563 drivers/serial/built-in.o
 .debug_loc     0x0001ec78      0x28c drivers/spi/built-in.o
 .debug_loc     0x0001ef04     0x1108 drivers/usb/host/built-in.o
 .debug_loc     0x0002000c     0x2420 fs/built-in.o
 .debug_loc     0x0002242c     0x95d7 lib/built-in.o
 .debug_loc     0x0002ba03     0x23f6 net/built-in.o
 .debug_loc     0x0002ddf9       0xba arch/arm/lib/eabi_compat.o

.debug_ranges   0x00000000     0x8198
 .debug_ranges  0x00000000       0x60 arch/arm/cpu/arm926ejs/built-in.o
 .debug_ranges  0x00000060      0x278 arch/arm/lib/built-in.o
 .debug_ranges  0x000002d8      0x1e0 arch/arm/mach-at91/built-in.o
 .debug_ranges  0x000004b8       0xe8 board/atmel/at91sam9263ek/built-in.o
 .debug_ranges  0x000005a0     0x2f88 common/built-in.o
 .debug_ranges  0x00003528      0x148 disk/built-in.o
 .debug_ranges  0x00003670      0x1e0 drivers/built-in.o
 .debug_ranges  0x00003850       0xb8 drivers/gpio/built-in.o
 .debug_ranges  0x00003908      0x628 drivers/mmc/built-in.o
 .debug_ranges  0x00003f30      0x218 drivers/mtd/built-in.o
 .debug_ranges  0x00004148      0xdd0 drivers/mtd/nand/built-in.o
 .debug_ranges  0x00004f18      0x2b8 drivers/net/built-in.o
 .debug_ranges  0x000051d0      0x190 drivers/serial/built-in.o
 .debug_ranges  0x00005360       0x68 drivers/spi/built-in.o
 .debug_ranges  0x000053c8      0x430 drivers/usb/host/built-in.o
 .debug_ranges  0x000057f8      0x440 fs/built-in.o
 .debug_ranges  0x00005c38     0x1ad0 lib/built-in.o
 .debug_ranges  0x00007708      0xa58 net/built-in.o
 .debug_ranges  0x00008160       0x38 arch/arm/lib/eabi_compat.o
